Archive member included to satisfy reference by file (symbol)

/home/junghyun/topst/buildtools/gcc-linaro-7.2.1-2017.11-x86_64_arm-eabi/arm-eabi/libc/usr/lib/libc.a(lib_a-atoi.o)
                              /home/junghyun/topst/cr5-bsp/sources/build/tcc805x/gcc/tcc805x-freertos-debug/obj/console.o (atoi)
/home/junghyun/topst/buildtools/gcc-linaro-7.2.1-2017.11-x86_64_arm-eabi/arm-eabi/libc/usr/lib/libc.a(lib_a-atol.o)
                              /home/junghyun/topst/cr5-bsp/sources/build/tcc805x/gcc/tcc805x-freertos-debug/obj/hsm_test.o (atol)
/home/junghyun/topst/buildtools/gcc-linaro-7.2.1-2017.11-x86_64_arm-eabi/arm-eabi/libc/usr/lib/libc.a(lib_a-memcmp.o)
                              /home/junghyun/topst/cr5-bsp/sources/build/tcc805x/gcc/tcc805x-freertos-debug/obj/sal_freertos_impl.o (memcmp)
/home/junghyun/topst/buildtools/gcc-linaro-7.2.1-2017.11-x86_64_arm-eabi/arm-eabi/libc/usr/lib/libc.a(lib_a-memcpy-stub.o)
                              /home/junghyun/topst/cr5-bsp/sources/build/tcc805x/gcc/tcc805x-freertos-debug/obj/dse_test.o (memcpy)
/home/junghyun/topst/buildtools/gcc-linaro-7.2.1-2017.11-x86_64_arm-eabi/arm-eabi/libc/usr/lib/libc.a(lib_a-memset.o)
                              /home/junghyun/topst/cr5-bsp/sources/build/tcc805x/gcc/tcc805x-freertos-debug/obj/console.o (memset)
/home/junghyun/topst/buildtools/gcc-linaro-7.2.1-2017.11-x86_64_arm-eabi/arm-eabi/libc/usr/lib/libc.a(lib_a-strlen-stub.o)
                              /home/junghyun/topst/cr5-bsp/sources/build/tcc805x/gcc/tcc805x-freertos-debug/obj/tasks.o (strlen)
/home/junghyun/topst/buildtools/gcc-linaro-7.2.1-2017.11-x86_64_arm-eabi/arm-eabi/libc/usr/lib/libc.a(lib_a-strncmp.o)
                              /home/junghyun/topst/cr5-bsp/sources/build/tcc805x/gcc/tcc805x-freertos-debug/obj/sal_freertos_impl.o (strncmp)
/home/junghyun/topst/buildtools/gcc-linaro-7.2.1-2017.11-x86_64_arm-eabi/arm-eabi/libc/usr/lib/libc.a(lib_a-strncpy.o)
                              /home/junghyun/topst/cr5-bsp/sources/build/tcc805x/gcc/tcc805x-freertos-debug/obj/sal_freertos_impl.o (strncpy)
/home/junghyun/topst/buildtools/gcc-linaro-7.2.1-2017.11-x86_64_arm-eabi/arm-eabi/libc/usr/lib/libc.a(lib_a-strnlen.o)
                              /home/junghyun/topst/cr5-bsp/sources/build/tcc805x/gcc/tcc805x-freertos-debug/obj/sal_freertos_impl.o (strnlen)
/home/junghyun/topst/buildtools/gcc-linaro-7.2.1-2017.11-x86_64_arm-eabi/arm-eabi/libc/usr/lib/libc.a(lib_a-strtol.o)
                              /home/junghyun/topst/buildtools/gcc-linaro-7.2.1-2017.11-x86_64_arm-eabi/arm-eabi/libc/usr/lib/libc.a(lib_a-atoi.o) (_strtol_r)
/home/junghyun/topst/buildtools/gcc-linaro-7.2.1-2017.11-x86_64_arm-eabi/arm-eabi/libc/usr/lib/libc.a(lib_a-strtoul.o)
                              /home/junghyun/topst/cr5-bsp/sources/build/tcc805x/gcc/tcc805x-freertos-debug/obj/console.o (strtoul)
/home/junghyun/topst/buildtools/gcc-linaro-7.2.1-2017.11-x86_64_arm-eabi/arm-eabi/libc/usr/lib/libc.a(lib_a-impure.o)
                              /home/junghyun/topst/buildtools/gcc-linaro-7.2.1-2017.11-x86_64_arm-eabi/arm-eabi/libc/usr/lib/libc.a(lib_a-strtol.o) (_impure_ptr)
/home/junghyun/topst/buildtools/gcc-linaro-7.2.1-2017.11-x86_64_arm-eabi/arm-eabi/libc/usr/lib/libc.a(lib_a-locale.o)
                              /home/junghyun/topst/buildtools/gcc-linaro-7.2.1-2017.11-x86_64_arm-eabi/arm-eabi/libc/usr/lib/libc.a(lib_a-strtol.o) (__locale_ctype_ptr_l)
/home/junghyun/topst/buildtools/gcc-linaro-7.2.1-2017.11-x86_64_arm-eabi/arm-eabi/libc/usr/lib/libc.a(lib_a-mbtowc_r.o)
                              /home/junghyun/topst/buildtools/gcc-linaro-7.2.1-2017.11-x86_64_arm-eabi/arm-eabi/libc/usr/lib/libc.a(lib_a-locale.o) (__ascii_mbtowc)
/home/junghyun/topst/buildtools/gcc-linaro-7.2.1-2017.11-x86_64_arm-eabi/arm-eabi/libc/usr/lib/libc.a(lib_a-strcasecmp.o)
                              /home/junghyun/topst/buildtools/gcc-linaro-7.2.1-2017.11-x86_64_arm-eabi/arm-eabi/libc/usr/lib/libc.a(lib_a-locale.o) (strcasecmp)
/home/junghyun/topst/buildtools/gcc-linaro-7.2.1-2017.11-x86_64_arm-eabi/arm-eabi/libc/usr/lib/libc.a(lib_a-strcat.o)
                              /home/junghyun/topst/buildtools/gcc-linaro-7.2.1-2017.11-x86_64_arm-eabi/arm-eabi/libc/usr/lib/libc.a(lib_a-locale.o) (strcat)
/home/junghyun/topst/buildtools/gcc-linaro-7.2.1-2017.11-x86_64_arm-eabi/arm-eabi/libc/usr/lib/libc.a(lib_a-strchr.o)
                              /home/junghyun/topst/buildtools/gcc-linaro-7.2.1-2017.11-x86_64_arm-eabi/arm-eabi/libc/usr/lib/libc.a(lib_a-locale.o) (strchr)
/home/junghyun/topst/buildtools/gcc-linaro-7.2.1-2017.11-x86_64_arm-eabi/arm-eabi/libc/usr/lib/libc.a(lib_a-strcmp.o)
                              /home/junghyun/topst/buildtools/gcc-linaro-7.2.1-2017.11-x86_64_arm-eabi/arm-eabi/libc/usr/lib/libc.a(lib_a-locale.o) (strcmp)
/home/junghyun/topst/buildtools/gcc-linaro-7.2.1-2017.11-x86_64_arm-eabi/arm-eabi/libc/usr/lib/libc.a(lib_a-strcpy.o)
                              /home/junghyun/topst/buildtools/gcc-linaro-7.2.1-2017.11-x86_64_arm-eabi/arm-eabi/libc/usr/lib/libc.a(lib_a-locale.o) (strcpy)
/home/junghyun/topst/buildtools/gcc-linaro-7.2.1-2017.11-x86_64_arm-eabi/arm-eabi/libc/usr/lib/libc.a(lib_a-strlcpy.o)
                              /home/junghyun/topst/buildtools/gcc-linaro-7.2.1-2017.11-x86_64_arm-eabi/arm-eabi/libc/usr/lib/libc.a(lib_a-locale.o) (strlcpy)
/home/junghyun/topst/buildtools/gcc-linaro-7.2.1-2017.11-x86_64_arm-eabi/arm-eabi/libc/usr/lib/libc.a(lib_a-strncasecmp.o)
                              /home/junghyun/topst/buildtools/gcc-linaro-7.2.1-2017.11-x86_64_arm-eabi/arm-eabi/libc/usr/lib/libc.a(lib_a-locale.o) (strncasecmp)
/home/junghyun/topst/buildtools/gcc-linaro-7.2.1-2017.11-x86_64_arm-eabi/arm-eabi/libc/usr/lib/libc.a(lib_a-wctomb_r.o)
                              /home/junghyun/topst/buildtools/gcc-linaro-7.2.1-2017.11-x86_64_arm-eabi/arm-eabi/libc/usr/lib/libc.a(lib_a-locale.o) (__ascii_wctomb)
/home/junghyun/topst/buildtools/gcc-linaro-7.2.1-2017.11-x86_64_arm-eabi/arm-eabi/libc/usr/lib/libc.a(lib_a-ctype_.o)
                              /home/junghyun/topst/buildtools/gcc-linaro-7.2.1-2017.11-x86_64_arm-eabi/arm-eabi/libc/usr/lib/libc.a(lib_a-locale.o) (__set_ctype)
/home/junghyun/topst/buildtools/gcc-linaro-7.2.1-2017.11-x86_64_arm-eabi/arm-eabi/libc/usr/lib/libc.a(lib_a-getenv_r.o)
                              /home/junghyun/topst/buildtools/gcc-linaro-7.2.1-2017.11-x86_64_arm-eabi/arm-eabi/libc/usr/lib/libc.a(lib_a-locale.o) (_getenv_r)
/home/junghyun/topst/buildtools/gcc-linaro-7.2.1-2017.11-x86_64_arm-eabi/arm-eabi/libc/usr/lib/libc.a(lib_a-environ.o)
                              /home/junghyun/topst/buildtools/gcc-linaro-7.2.1-2017.11-x86_64_arm-eabi/arm-eabi/libc/usr/lib/libc.a(lib_a-getenv_r.o) (environ)
/home/junghyun/topst/buildtools/gcc-linaro-7.2.1-2017.11-x86_64_arm-eabi/arm-eabi/libc/usr/lib/libc.a(lib_a-envlock.o)
                              /home/junghyun/topst/buildtools/gcc-linaro-7.2.1-2017.11-x86_64_arm-eabi/arm-eabi/libc/usr/lib/libc.a(lib_a-getenv_r.o) (__env_lock)
/home/junghyun/topst/buildtools/gcc-linaro-7.2.1-2017.11-x86_64_arm-eabi/arm-eabi/libc/usr/lib/libgcc.a(_udivsi3.o)
                              /home/junghyun/topst/buildtools/gcc-linaro-7.2.1-2017.11-x86_64_arm-eabi/arm-eabi/libc/usr/lib/libc.a(lib_a-strtoul.o) (__aeabi_uidiv)
/home/junghyun/topst/buildtools/gcc-linaro-7.2.1-2017.11-x86_64_arm-eabi/arm-eabi/libc/usr/lib/libgcc.a(_dvmd_tls.o)
                              /home/junghyun/topst/buildtools/gcc-linaro-7.2.1-2017.11-x86_64_arm-eabi/arm-eabi/libc/usr/lib/libgcc.a(_udivsi3.o) (__aeabi_idiv0)
/home/junghyun/topst/buildtools/gcc-linaro-7.2.1-2017.11-x86_64_arm-eabi/arm-eabi/libc/usr/lib/libgcc.a(_aeabi_uldivmod.o)
                              /home/junghyun/topst/cr5-bsp/sources/build/tcc805x/gcc/tcc805x-freertos-debug/obj/clock_dev.o (__aeabi_uldivmod)
/home/junghyun/topst/buildtools/gcc-linaro-7.2.1-2017.11-x86_64_arm-eabi/arm-eabi/libc/usr/lib/libgcc.a(_udivmoddi4.o)
                              /home/junghyun/topst/buildtools/gcc-linaro-7.2.1-2017.11-x86_64_arm-eabi/arm-eabi/libc/usr/lib/libgcc.a(_aeabi_uldivmod.o) (__udivmoddi4)
/home/junghyun/topst/buildtools/gcc-linaro-7.2.1-2017.11-x86_64_arm-eabi/arm-eabi/libc/usr/lib/libgcc.a(_clzdi2.o)
                              /home/junghyun/topst/buildtools/gcc-linaro-7.2.1-2017.11-x86_64_arm-eabi/arm-eabi/libc/usr/lib/libgcc.a(_udivmoddi4.o) (__clzdi2)
/home/junghyun/topst/buildtools/gcc-linaro-7.2.1-2017.11-x86_64_arm-eabi/arm-eabi/libc/usr/lib/libgcc.a(_clzsi2.o)
                              /home/junghyun/topst/buildtools/gcc-linaro-7.2.1-2017.11-x86_64_arm-eabi/arm-eabi/libc/usr/lib/libgcc.a(_clzdi2.o) (__clzsi2)

Discarded input sections

 .ARM.extab     0x0000000000000000        0x0 /home/junghyun/topst/buildtools/gcc-linaro-7.2.1-2017.11-x86_64_arm-eabi/arm-eabi/libc/usr/lib/libgcc.a(_udivmoddi4.o)
 .ARM.exidx     0x0000000000000000        0x8 /home/junghyun/topst/buildtools/gcc-linaro-7.2.1-2017.11-x86_64_arm-eabi/arm-eabi/libc/usr/lib/libgcc.a(_udivmoddi4.o)

Memory Configuration

Name             Origin             Length             Attributes
SRAM             0x0000000006000000 0x000000000007b980 xrw
SRAM_ARM_STACK   0x000000000607b980 0x0000000000000680 xrw
NC_SRAM          0x00000000c007c000 0x0000000000004000 xrw
NOR              0x0000000008200000 0x0000000000200000 xr
*default*        0x0000000000000000 0xffffffffffffffff

Linker script and memory map

                0x0000000006000000                __VECTOR_START = 0x6000000
                0x0000000000004000                DMA_NC_SIZE = 0x4000

.text           0x0000000008200000    0x5feb8
                0x0000000008200000                __TEXT_START__ = .
 *startup.o(.text)
 .text          0x0000000008200000      0x230 /home/junghyun/topst/cr5-bsp/sources/build/tcc805x/gcc/tcc805x-freertos-debug/obj/startup.o
                0x0000000008200000                reset
 *(.text)
 .text          0x0000000008200230      0x270 /home/junghyun/topst/cr5-bsp/sources/build/tcc805x/gcc/tcc805x-freertos-debug/obj/main.o
                0x0000000008200230                cmain
 .text          0x00000000082004a0     0x1a50 /home/junghyun/topst/cr5-bsp/sources/build/tcc805x/gcc/tcc805x-freertos-debug/obj/can_demo.o
                0x0000000008201674                CAN_DemoInitialize
                0x00000000082018c8                CAN_DemoTest
                0x0000000008201dec                CAN_DemoCreateApp
 .text          0x0000000008201ef0     0x2f78 /home/junghyun/topst/cr5-bsp/sources/build/tcc805x/gcc/tcc805x-freertos-debug/obj/console.o
                0x0000000008204dec                CreateConsoleTask
 .text          0x0000000008204e68      0x4fc /home/junghyun/topst/cr5-bsp/sources/build/tcc805x/gcc/tcc805x-freertos-debug/obj/fwug.o
                0x0000000008204e68                FWUG_CreateApp
                0x0000000008205060                FWUG_Start
 .text          0x0000000008205364      0xb00 /home/junghyun/topst/cr5-bsp/sources/build/tcc805x/gcc/tcc805x-freertos-debug/obj/key_adc.o
                0x0000000008205734                KEY_AdcOpen
                0x000000000820598c                KEY_AdcScan
 .text          0x0000000008205e64      0x500 /home/junghyun/topst/cr5-bsp/sources/build/tcc805x/gcc/tcc805x-freertos-debug/obj/key_gpio.o
                0x0000000008206030                KEY_GpioKeyOpen
                0x00000000082060a4                KEY_GpioGetRotaryValue
 .text          0x0000000008206364      0xa08 /home/junghyun/topst/cr5-bsp/sources/build/tcc805x/gcc/tcc805x-freertos-debug/obj/key_i2c.o
                0x00000000082064e0                KEY_I2cOpen
                0x00000000082065b4                KEY_I2cRead
                0x0000000008206730                KEY_I2cWrite
                0x00000000082068b8                KEY_I2cScan
 .text          0x0000000008206d6c      0xcdc /home/junghyun/topst/cr5-bsp/sources/build/tcc805x/gcc/tcc805x-freertos-debug/obj/key.o
                0x00000000082078c8                KEY_AppCreate
 .text          0x0000000008207a48      0xc0c /home/junghyun/topst/cr5-bsp/sources/build/tcc805x/gcc/tcc805x-freertos-debug/obj/system_monitoring.o
                0x00000000082085d8                SM_CreateAppTask
 .text          0x0000000008208654      0x4b0 /home/junghyun/topst/cr5-bsp/sources/build/tcc805x/gcc/tcc805x-freertos-debug/obj/bootctrl.o
                0x00000000082089a0                BCTRL_Init
 .text          0x0000000008208b04      0x1dc /home/junghyun/topst/cr5-bsp/sources/build/tcc805x/gcc/tcc805x-freertos-debug/obj/reset_demo.o
                0x0000000008208b04                PMU_ResetTest
 .text          0x0000000008208ce0        0x0 /home/junghyun/topst/cr5-bsp/sources/build/tcc805x/gcc/tcc805x-freertos-debug/obj/adc_test.o
 .text          0x0000000008208ce0      0x76c /home/junghyun/topst/cr5-bsp/sources/build/tcc805x/gcc/tcc805x-freertos-debug/obj/dse_test.o
                0x0000000008208ce0                DSE_Test_R5AccessFault
                0x000000000820919c                DSE_Test_SoftFaultCheck
 .text          0x000000000820944c      0x620 /home/junghyun/topst/cr5-bsp/sources/build/tcc805x/gcc/tcc805x-freertos-debug/obj/fmu_test.o
                0x0000000008209a18                FMU_StartFmuTest
 .text          0x0000000008209a6c      0x3dc /home/junghyun/topst/cr5-bsp/sources/build/tcc805x/gcc/tcc805x-freertos-debug/obj/gdma_test.o
                0x0000000008209a6c                GDMA_SampleForM2M
 .text          0x0000000008209e48      0x404 /home/junghyun/topst/cr5-bsp/sources/build/tcc805x/gcc/tcc805x-freertos-debug/obj/gic_test.o
                0x0000000008209f0c                GIC_Test_SmInt
                0x000000000820a0d0                GIC_Test_Sgi
 .text          0x000000000820a24c     0x21b8 /home/junghyun/topst/cr5-bsp/sources/build/tcc805x/gcc/tcc805x-freertos-debug/obj/gpio_test.o
                0x000000000820c3b0                GPIO_StartGpioTest
 .text          0x000000000820c404     0x2590 /home/junghyun/topst/cr5-bsp/sources/build/tcc805x/gcc/tcc805x-freertos-debug/obj/gpsb_test.o
                0x000000000820e3e0                GPSB_Test
 .text          0x000000000820e994     0x33b0 /home/junghyun/topst/cr5-bsp/sources/build/tcc805x/gcc/tcc805x-freertos-debug/obj/hsm_test.o
                0x0000000008211b20                HSM_Test
 .text          0x0000000008211d44      0xae0 /home/junghyun/topst/cr5-bsp/sources/build/tcc805x/gcc/tcc805x-freertos-debug/obj/i2c_test.o
                0x0000000008212778                I2C_TestMain
 .text          0x0000000008212824      0x2bc /home/junghyun/topst/cr5-bsp/sources/build/tcc805x/gcc/tcc805x-freertos-debug/obj/ictc_test.o
                0x0000000008212aa0                ICTC_SelectTestCase
 .text          0x0000000008212ae0      0x354 /home/junghyun/topst/cr5-bsp/sources/build/tcc805x/gcc/tcc805x-freertos-debug/obj/lin_test.o
                0x0000000008212ae0                LIN_TestUsage
                0x0000000008212b2c                LIN_SampleTest
 .text          0x0000000008212e34      0x48c /home/junghyun/topst/cr5-bsp/sources/build/tcc805x/gcc/tcc805x-freertos-debug/obj/pdm_test.o
                0x0000000008213260                PDM_SelectTestCase
 .text          0x00000000082132c0      0x66c /home/junghyun/topst/cr5-bsp/sources/build/tcc805x/gcc/tcc805x-freertos-debug/obj/pmio_test.o
                0x0000000008213618                PMIO_TEST_GetByAddress
                0x0000000008213688                PMIO_TEST_GetByName
                0x0000000008213724                PMIO_TEST_SetByAddress
                0x00000000082137dc                PMIO_TEST_SetByName
                0x00000000082138cc                PMIO_TEST_PrintStatus
                0x00000000082138ec                PMIO_TEST_Run
 .text          0x000000000821392c     0x12d4 /home/junghyun/topst/cr5-bsp/sources/build/tcc805x/gcc/tcc805x-freertos-debug/obj/timer_test.o
                0x0000000008214af8                TIMER_StartTimerTest
 .text          0x0000000008214c00      0xac0 /home/junghyun/topst/cr5-bsp/sources/build/tcc805x/gcc/tcc805x-freertos-debug/obj/wdt_test.o
                0x0000000008215578                WDT_StartTest
 .text          0x00000000082156c0      0x21c /home/junghyun/topst/cr5-bsp/sources/build/tcc805x/gcc/tcc805x-freertos-debug/obj/mptool.o
                0x00000000082156c0                MPTool_CreateApp
 .text          0x00000000082158dc     0x1bbc /home/junghyun/topst/cr5-bsp/sources/build/tcc805x/gcc/tcc805x-freertos-debug/obj/ipc_os.o
                0x00000000082158dc                IPC_GetUsec
                0x00000000082158f8                IPC_GetMsec
                0x0000000008215948                IPC_Mdelay
                0x0000000008215994                IPC_Udelay
                0x0000000008215ab4                IPC_CommonLock
                0x0000000008215b34                IPC_CommonUnlock
                0x0000000008216204                IPC_MboxLock
                0x0000000008216284                IPC_MboxUnlock
                0x00000000082162fc                IPC_WriteLock
                0x000000000821637c                IPC_WriteUnlock
                0x00000000082163f4                IPC_ReadLock
                0x0000000008216474                IPC_ReadUnlock
                0x00000000082164ec                IPC_RbufferLock
                0x000000000821656c                IPC_RbufferUnlock
                0x00000000082165e4                IPC_WbufferLock
                0x0000000008216664                IPC_WbufferUnlock
                0x000000000821689c                IPC_CmdWaitEventTimeOut
                0x0000000008216a28                IPC_CmdWakePreSet
                0x0000000008216b74                IPC_CmdWakeUp
                0x0000000008216e44                IPC_ReadWaitEventTimeOut
                0x0000000008216f24                IPC_ReadClearEvent
                0x0000000008216fa4                IPC_ReadWakeUp
                0x0000000008217194                IPC_BufferOverFlowWaitEventTimeOut
                0x00000000082172dc                IPC_BufferOverFlowWakeUp
                0x0000000008217360                IPC_RequestIrq
                0x00000000082173a8                IPC_FreeIrq
                0x00000000082173d0                IPC_OsResourceInit
                0x000000000821742c                IPC_OsResourceRelease
 .text          0x0000000008217498      0xfa8 /home/junghyun/topst/cr5-bsp/sources/build/tcc805x/gcc/tcc805x-freertos-debug/obj/ipc_buffer.o
                0x0000000008217498                IPC_BufferInit
                0x00000000082174f0                IPC_PushOneByte
                0x0000000008217604                IPC_PushOneByteOverWrite
                0x0000000008217770                IPC_PopOneByte
                0x000000000821788c                IPC_BufferFlush
                0x0000000008217918                IPC_BufferFlushByte
                0x0000000008217a7c                IPC_BufferDataAvailable
                0x0000000008217b68                IPC_BufferFreeSpace
                0x0000000008217c5c                IPC_BufferSetHead
                0x0000000008217ce0                IPC_BufferSetTail
                0x0000000008217d64                IPC_BufferGetHead
                0x0000000008217da0                IPC_BufferGetTail
                0x0000000008217ddc                IPC_PushBuffer
                0x0000000008218018                IPC_PushBufferOverWrite
                0x0000000008218238                IPC_PopBuffer
 .text          0x0000000008218440      0xcd0 /home/junghyun/topst/cr5-bsp/sources/build/tcc805x/gcc/tcc805x-freertos-debug/obj/ipc_cmd.o
                0x00000000082184d4                IPC_SendOpen
                0x000000000821866c                IPC_SendClose
                0x00000000082187b0                IPC_SendWrite
                0x0000000008218a8c                IPC_SendPing
                0x0000000008218c28                IPC_SendAck
                0x0000000008218dac                IPC_SendCtl
                0x0000000008218f78                IPC_SendData
 .text          0x0000000008219110     0x1cec /home/junghyun/topst/cr5-bsp/sources/build/tcc805x/gcc/tcc805x-freertos-debug/obj/ipc_ctl.o
                0x0000000008219200                IPC_Write
                0x0000000008219958                IPC_Read
                0x0000000008219adc                IPC_PingTest
                0x0000000008219c04                IPC_Flush
                0x0000000008219c70                IPC_StructInit
                0x0000000008219d74                IPC_GetStatus
                0x000000000821ac1c                IPC_Initialize
                0x000000000821adac                IPC_Release
 .text          0x000000000821adfc      0x680 /home/junghyun/topst/cr5-bsp/sources/build/tcc805x/gcc/tcc805x-freertos-debug/obj/ipc_parser.o
                0x000000000821b304                IPC_CreateIPCParserTask
 .text          0x000000000821b47c     0x10cc /home/junghyun/topst/cr5-bsp/sources/build/tcc805x/gcc/tcc805x-freertos-debug/obj/ipc_api.o
                0x000000000821b47c                IPC_Open
                0x000000000821b6f8                IPC_Close
                0x000000000821b900                IPC_CalcCrc16
                0x000000000821b9c4                IPC_Ioctl
                0x000000000821c218                IPC_SendPacketWithIPCHeader
                0x000000000821c4a0                IPC_SendToMainCtlCmdHandler
                0x000000000821c4f8                IPC_SendToMainDataHandler
 .text          0x000000000821c548      0x258 /home/junghyun/topst/cr5-bsp/sources/build/tcc805x/gcc/tcc805x-freertos-debug/obj/ipc.o
                0x000000000821c548                IPC_Create
                0x000000000821c55c                IPC_RegisterCbFunc
                0x000000000821c664                IPC_SendPacket
                0x000000000821c6d4                IPC_IsReady
                0x000000000821c71c                IPC_SendToMainCtlCmd
                0x000000000821c774                IPC_SendToMainData
 .text          0x000000000821c7a0      0xe1c /home/junghyun/topst/cr5-bsp/sources/build/tcc805x/gcc/tcc805x-freertos-debug/obj/lin.o
                0x000000000821ce30                LIN_Init
                0x000000000821d04c                LIN_SendData
                0x000000000821d194                LIN_ReadData
                0x000000000821d524                LIN_TransceiverWakeup
 .text          0x000000000821d5bc      0xc84 /home/junghyun/topst/cr5-bsp/sources/build/tcc805x/gcc/tcc805x-freertos-debug/obj/sdm.o
                0x000000000821d788                SDM_ReadReg
                0x000000000821dbac                SDM_WriteReg
                0x000000000821e0f0                SDM_Init
 .text          0x000000000821e240     0x2d00 /home/junghyun/topst/cr5-bsp/sources/build/tcc805x/gcc/tcc805x-freertos-debug/obj/hsm_manager.o
                0x000000000821e240                HSM_Init
                0x000000000821e314                HSM_VerifyFw
                0x000000000821e474                HSM_SetKey
                0x000000000821e680                HSM_RunAes
                0x000000000821ec20                HSM_RunAesByKt
                0x000000000821f14c                HSM_GenMac
                0x000000000821f5c8                HSM_GenMacByKt
                0x000000000821f9d0                HSM_GenHash
                0x000000000821fd08                HSM_RunEcdsa
                0x0000000008220158                HSM_RunRsa
                0x0000000008220658                HSM_Write
                0x000000000822089c                HSM_GetRand
                0x0000000008220b20                HSM_BlockApSystem
                0x0000000008220ca8                HSM_GetVersion
 .text          0x0000000008220f40      0x3fc /home/junghyun/topst/cr5-bsp/sources/build/tcc805x/gcc/tcc805x-freertos-debug/obj/adc.o
                0x00000000082210dc                ADC_Init
                0x00000000082211d0                ADC_Read
                0x00000000082212d0                ADC_AutoScan
                0x0000000008221320                ADC_DeInit
 .text          0x000000000822133c      0xbb0 /home/junghyun/topst/cr5-bsp/sources/build/tcc805x/gcc/tcc805x-freertos-debug/obj/can.o
                0x000000000822133c                CAN_Init
                0x00000000082214d4                CAN_Deinit
                0x0000000008221600                CAN_InitMessage
                0x0000000008221688                CAN_CheckNewRxMessage
                0x00000000082216d0                CAN_GetNewRxMessage
                0x00000000082217c4                CAN_SendMessage
                0x00000000082218c8                CAN_RequestTxMessageCancellation
                0x0000000008221988                CAN_CheckNewTxEvent
                0x00000000082219d0                CAN_GetNewTxEvent
                0x0000000008221a30                CAN_SetControllerMode
                0x0000000008221c7c                CAN_GetControllerMode
                0x0000000008221d00                CAN_GetProtocolStatus
                0x0000000008221d80                CAN_GetControllerInfo
                0x0000000008221df0                CAN_RegisterCallbackFunctionTx
                0x0000000008221e44                CAN_RegisterCallbackFunctionRx
                0x0000000008221e98                CAN_RegisterCallbackFunctionError
 .text          0x0000000008221eec     0x2ef8 /home/junghyun/topst/cr5-bsp/sources/build/tcc805x/gcc/tcc805x-freertos-debug/obj/can_drv.o
                0x0000000008221eec                CAN_DrvInitChannel
                0x00000000082220b8                CAN_DrvDeinitChannel
                0x000000000822219c                CAN_DrvSetNormalOperationMode
                0x0000000008222320                CAN_DrvSetMonitoringMode
                0x0000000008222408                CAN_DrvSetInternalTestMode
                0x0000000008222518                CAN_DrvSetExternalTestMode
                0x0000000008222614                CAN_DrvSetWakeUpMode
                0x0000000008222734                CAN_DrvSetSleepMode
                0x000000000822405c                CAN_DrvGetProtocolStatus
                0x0000000008224c98                CAN_DrvCallbackNotifyRxEvent
 .text          0x0000000008224de4     0x1ac0 /home/junghyun/topst/cr5-bsp/sources/build/tcc805x/gcc/tcc805x-freertos-debug/obj/can_msg.o
                0x0000000008224de4                CAN_MsgInit
                0x0000000008225788                CAN_MsgPutRxMessage
                0x0000000008225be8                CAN_MsgGetCountOfRxMessage
                0x0000000008225d8c                CAN_MsgGetRxMessage
                0x0000000008226300                CAN_MsgSetTxMessage
                0x00000000082265b4                CAN_MsgRequestTxMessageCancellation
                0x0000000008226644                CAN_MsgGetCountOfTxEvent
                0x00000000082266b4                CAN_MsgGetTxEventMessage
 .text          0x00000000082268a4        0x0 /home/junghyun/topst/cr5-bsp/sources/build/tcc805x/gcc/tcc805x-freertos-debug/obj/can_par.o
 .text          0x00000000082268a4      0xc10 /home/junghyun/topst/cr5-bsp/sources/build/tcc805x/gcc/tcc805x-freertos-debug/obj/can_porting.o
                0x00000000082268a4                CAN_PortingDelay
                0x0000000008226908                CAN_PortingInitHW
                0x0000000008226a04                CAN_PortingSetControllerClock
                0x0000000008226ad8                CAN_PortingResetDriver
                0x0000000008226c5c                CAN_PortingSetInterruptHandler
                0x0000000008226cd4                CAN_PortingDisableControllerInterrupts
                0x0000000008226d28                CAN_PortingEnableControllerInterrupts
                0x0000000008226d7c                CAN_PortingGetSizeofStandardIDFilterList
                0x0000000008226dc0                CAN_PortingGetSizeofExtendedIDFilterList
                0x0000000008226e04                CAN_PortingGetSizeofRxFIFO0
                0x0000000008226e48                CAN_PortingGetSizeofRxFIFO1
                0x0000000008226e8c                CAN_PortingGetSizeofRxBuffer
                0x0000000008226ed0                CAN_PortingGetSizeofTxEventBuffer
                0x0000000008226f14                CAN_PortingGetSizeofTxBuffer
                0x0000000008226f58                CAN_PortingGetBitRateSwitchEnable
                0x0000000008226f9c                CAN_PortingGetFDEnable
                0x0000000008226fe0                CAN_PortingGetStandardIDFilterEnable
                0x0000000008227024                CAN_PortingGetExtendedIDFilterEnable
                0x0000000008227068                CAN_PortingGetStandardIDRemoteRejectEnable
                0x00000000082270ac                CAN_PortingGetExtendedIDRemoteRejectEnable
                0x00000000082270f0                CAN_PortingGetTxEventFIFOEnable
                0x0000000008227134                CAN_PortingGetWatchDogEnable
                0x0000000008227178                CAN_PortingGetTimeOutEnable
                0x00000000082271bc                CAN_PortingGetTimeStampEnable
                0x0000000008227200                CAN_PortingAllocateNonCacheMemory
                0x0000000008227288                CAN_PortingDeallocateNonCacheMemory
                0x00000000082272c8                CAN_PortingGetControllerRegister
                0x0000000008227314                CAN_PortingGetConfigBaseAddr
                0x0000000008227340                CAN_PortingGetMessageRamBaseAddr
                0x0000000008227394                CAN_PortingGetConfigEXTS0Addr
                0x00000000082273dc                CAN_PortingGetConfigEXTS1Addr
                0x0000000008227424                CAN_PortingGetConfigWritePasswordAddr
                0x000000000822746c                CAN_PortingGetConfigWriteLockAddr
 *fill*         0x00000000082274b4        0x4 
 .text          0x00000000082274b8     0x226c /home/junghyun/topst/cr5-bsp/sources/build/tcc805x/gcc/tcc805x-freertos-debug/obj/clock_dev.o
                0x00000000082285e4                CLOCK_Init
                0x00000000082286b8                CLOCK_SetPllDiv
                0x0000000008228800                CLOCK_GetPllRate
                0x0000000008228878                CLOCK_SetPllRate
                0x0000000008228e3c                CLOCK_SetClkCtrlRate
                0x0000000008228edc                CLOCK_GetClkCtrlRate
                0x0000000008229030                CLOCK_IsPeriEnabled
                0x0000000008229098                CLOCK_EnablePeri
                0x00000000082290f8                CLOCK_DisablePeri
                0x0000000008229158                CLOCK_GetPeriRate
                0x00000000082292d4                CLOCK_SetPeriRate
                0x00000000082293f0                CLOCK_IsIobusPwdn
                0x00000000082294a4                CLOCK_EnableIobus
                0x0000000008229544                CLOCK_SetIobusPwdn
                0x0000000008229634                CLOCK_SetSwReset
 .text          0x0000000008229724      0xba8 /home/junghyun/topst/cr5-bsp/sources/build/tcc805x/gcc/tcc805x-freertos-debug/obj/debug.o
                0x0000000008229724                DBG_Putc
                0x0000000008229b84                DBG_Printfi
                0x000000000822a2a0                DBG_SerialPrintf
 .text          0x000000000822a2cc       0xd8 /home/junghyun/topst/cr5-bsp/sources/build/tcc805x/gcc/tcc805x-freertos-debug/obj/bsp.o
                0x000000000822a2cc                BSP_PreInit
                0x000000000822a2e8                BSP_Init
                0x000000000822a33c                BSP_UndefAbortExceptionHook
                0x000000000822a364                BSP_SystemHalt
 .text          0x000000000822a3a4     0x18a4 /home/junghyun/topst/cr5-bsp/sources/build/tcc805x/gcc/tcc805x-freertos-debug/obj/fmu.o
                0x000000000822b6c4                FMU_Init
                0x000000000822b74c                FMU_IsrHandler
                0x000000000822b878                FMU_Set
                0x000000000822bb98                FMU_IsrClr
                0x000000000822bc14                FMU_Deinit
 .text          0x000000000822bc48      0xc3c /home/junghyun/topst/cr5-bsp/sources/build/tcc805x/gcc/tcc805x-freertos-debug/obj/gdma.o
                0x000000000822c3c4                GDMA_TransferFunctionForM2M
                0x000000000822c6f8                GDMA_Initialize
 .text          0x000000000822c884      0xe1c /home/junghyun/topst/cr5-bsp/sources/build/tcc805x/gcc/tcc805x-freertos-debug/obj/gic.o
                0x000000000822cad4                GIC_Init
                0x000000000822cbc0                GIC_IntSrcEn
                0x000000000822cce0                GIC_IntSrcDis
                0x000000000822cdd8                GIC_IntPrioSet
                0x000000000822ce70                GIC_IntVectSet
                0x000000000822d094                GIC_IntHandlerWithParam
                0x000000000822d17c                GIC_IntHandler
                0x000000000822d268                GIC_IntExtSet
                0x000000000822d3ac                GIC_IntSGI
                0x000000000822d448                GIC_SmIrqEn
                0x000000000822d574                GIC_SmIrqSetHigh
 .text          0x000000000822d6a0     0x1224 /home/junghyun/topst/cr5-bsp/sources/build/tcc805x/gcc/tcc805x-freertos-debug/obj/gpio.o
                0x000000000822dbf4                GPIO_Config
                0x000000000822e530                GPIO_Get
                0x000000000822e5a8                GPIO_Set
                0x000000000822e670                GPIO_ToNum
 .text          0x000000000822e8c4     0x4d00 /home/junghyun/topst/cr5-bsp/sources/build/tcc805x/gcc/tcc805x-freertos-debug/obj/i2c.o
                0x000000000822ec7c                I2C_ScanSlave
                0x00000000082304f8                I2C_Xfer
                0x00000000082307bc                I2C_XferCmd
                0x0000000008230a44                I2C_GetMachineState
                0x0000000008232d98                I2C_Open
                0x00000000082331e0                I2C_Close
                0x000000000823350c                I2C_Init
                0x000000000823359c                I2C_Deinit
 .text          0x00000000082335c4        0x0 /home/junghyun/topst/cr5-bsp/sources/build/tcc805x/gcc/tcc805x-freertos-debug/obj/i2c_reg.o
 .text          0x00000000082335c4     0x153c /home/junghyun/topst/cr5-bsp/sources/build/tcc805x/gcc/tcc805x-freertos-debug/obj/ictc.o
                0x00000000082335c4                ICTC_Init
                0x000000000823373c                ICTC_Deinit
                0x00000000082337bc                ICTC_GetPrevPeriodCnt
                0x00000000082338e4                ICTC_GetPreDutyCnt
                0x0000000008233a0c                ICTC_GetCurEdgeCnt
                0x0000000008233b34                ICTC_GetPrvEdgeCnt
                0x0000000008233c5c                ICTC_GetREdgeTstmpCnt
                0x0000000008233e90                ICTC_GetFEdgeTstmpCnt
                0x0000000008234188                ICTC_EnableCapture
                0x0000000008234230                ICTC_DisableCapture
                0x00000000082342e0                ICTC_SetOpEnCtrlCounter
                0x0000000008234354                ICTC_SetOpModeCtrlReg
                0x0000000008234674                ICTC_SetIRQCtrlReg
                0x0000000008234804                ICTC_SetCallBackFunc
                0x0000000008234868                ICTC_SetTimeoutValue
                0x00000000082348e8                ICTC_SetEdgeMatchingValue
                0x0000000008234a20                ICTC_SetCompareRoundValue
 .text          0x0000000008234b00     0x10d4 /home/junghyun/topst/cr5-bsp/sources/build/tcc805x/gcc/tcc805x-freertos-debug/obj/mbox_phy.o
                0x0000000008234b00                MBOX_PhyReady
                0x0000000008234d74                MBOX_PhyBitSetCtrl
                0x0000000008234df8                MBOX_PhyBitClearCtrl
                0x0000000008234e50                MBOX_PhyIsIlevelSet
                0x0000000008234ea0                MBOX_PhyIsIenSet
                0x0000000008234ef4                MBOX_PhyIsOenSet
                0x0000000008234f48                MBOX_PhyIsFlushedCmd
                0x0000000008234f9c                MBOX_PhyIsFlushedData
                0x0000000008234ff0                MBOX_PhyCountScmd
                0x0000000008235044                MBOX_PhyFullScmd
                0x0000000008235098                MBOX_PhyEmptyScmd
                0x00000000082350ec                MBOX_PhyCountMcmd
                0x0000000008235140                MBOX_PhyFullMcmd
                0x0000000008235194                MBOX_PhyEmptyMcmd
                0x00000000082351e4                MBOX_PhyEmptyMdata
                0x0000000008235238                MBOX_PhyFullMdata
                0x000000000823528c                MBOX_PhyCountMdata
                0x00000000082352d8                MBOX_PhyEmptySdata
                0x000000000823532c                MBOX_PhyFullSdata
                0x0000000008235380                MBOX_PhyCountSdata
                0x00000000082353cc                MBOX_PhyWriteCmd
                0x0000000008235588                MBOX_PhyReadCmd
                0x000000000823580c                MBOX_PhyWriteData
                0x00000000082358f4                MBOX_PhyReadData
                0x00000000082359fc                MBOX_PhySetOwnTmnSts
                0x0000000008235ab0                MBOX_PhyGetOwnTmnSts
                0x0000000008235b40                MBOX_PhyGetOppTmnSts
 .text          0x0000000008235bd4     0x424c /home/junghyun/topst/cr5-bsp/sources/build/tcc805x/gcc/tcc805x-freertos-debug/obj/mbox_dev.o
                0x0000000008235bd4                MBOX_DevInit
                0x000000000823605c                MBOX_DevOpen
                0x000000000823675c                MBOX_DevSend
                0x0000000008236c70                MBOX_DevSendSss
                0x0000000008237178                MBOX_DevSendCmd
                0x00000000082375cc                MBOX_DevSendData
                0x0000000008237adc                MBOX_DevRecv
                0x0000000008237c54                MBOX_DevRecvSss
                0x0000000008237dcc                MBOX_DevRecvCmd
                0x0000000008237e00                MBOX_DevRecvData
                0x0000000008238e34                MBOX_DevIoctl
 .text          0x0000000008239e20      0xcc8 /home/junghyun/topst/cr5-bsp/sources/build/tcc805x/gcc/tcc805x-freertos-debug/obj/mbox.o
                0x000000000823a840                MBOX_Init
 .text          0x000000000823aae8      0x268 /home/junghyun/topst/cr5-bsp/sources/build/tcc805x/gcc/tcc805x-freertos-debug/obj/mpu.o
                0x000000000823ab74                MPU_Init
                0x000000000823ac04                MPU_GetDMABaseAddress
                0x000000000823ac30                MPU_SetRegion
                0x000000000823acd4                MPU_Enable
                0x000000000823ad08                MPU_Disable
 .text          0x000000000823ad50     0x3f08 /home/junghyun/topst/cr5-bsp/sources/build/tcc805x/gcc/tcc805x-freertos-debug/obj/pdm.o
                0x000000000823c038                PDM_EnableClock
                0x000000000823c1b8                PDM_DisableClock
                0x000000000823c1e0                PDM_Init
                0x000000000823c8c4                PDM_Deinit
                0x000000000823df64                PDM_GetChannelStatus
                0x000000000823e534                PDM_Enable
                0x000000000823e6e4                PDM_Disable
                0x000000000823e810                PDM_SetConfig
 .text          0x000000000823ec58     0x2914 /home/junghyun/topst/cr5-bsp/sources/build/tcc805x/gcc/tcc805x-freertos-debug/obj/pmio_dev.o
                0x000000000823f6d8                PMIO_ForceSTRModeTest
                0x000000000823f700                PMIO_EarlyWakeUp
                0x000000000823f7b4                PMIO_PowerDown
                0x000000000823fa18                PMIO_DebugPrintPowerStatus
                0x000000000823fc40                PMIO_Init
                0x000000000823fcf4                PMIO_ClearBackupRAM
                0x000000000823fd4c                PMIO_GetBackupRam
                0x000000000823fd88                PMIO_SetBackupRam
                0x000000000823fe08                PMIO_GetBootReason
                0x000000000823ff14                PMIO_GetWdtReset
                0x000000000823ff90                PMIO_SetGPK
                0x0000000008241554                PMIO_APBootOk
 .text          0x000000000824156c     0x7490 /home/junghyun/topst/cr5-bsp/sources/build/tcc805x/gcc/tcc805x-freertos-debug/obj/gpsb.o
                0x00000000082415e8                GPSB_BitClear
                0x0000000008241638                GPSB_BitSet
                0x0000000008241698                GPSB_BitCSet
                0x00000000082416fc                GPSB_BitSClear
                0x0000000008241eec                GPSB_Reset
                0x0000000008242a68                GPSB_SetSpeed
                0x0000000008242c60                GPSB_SetBpw
                0x0000000008242e50                GPSB_SetBpwNoSwap
                0x0000000008243010                GPSB_SetMode
                0x000000000824344c                GPSB_CsAlloc
                0x00000000082435cc                GPSB_CsInit
                0x00000000082436c0                GPSB_CsActivate
                0x0000000008243760                GPSB_CsDeactivate
                0x0000000008244a20                GPSB_Xfer
                0x0000000008244f20                GPSB_XferAbort
                0x0000000008245264                GPSB_Open
                0x0000000008245a78                GPSB_Close
                0x0000000008246fc8                GPSB_SetSdmExtPort
                0x0000000008247104                GPSB_SetRvcExtPort
                0x0000000008247224                GPSB_SetSdmChannel
                0x0000000008247448                GPSB_SetRvcChannel
                0x0000000008247678                GPSB_SetLbCfg
                0x00000000082477cc                GPSB_ClearLbCfg
                0x0000000008247e6c                GPSB_Init
                0x0000000008248064                GPSB_Deinit
                0x00000000082480d4                GPSB_SafetyEnableLock
                0x00000000082481cc                GPSB_SafetyDisableLock
                0x00000000082482c4                GPSB_SafetyEnableLoopback
                0x0000000008248420                GPSB_SafetyDisableLoopback
                0x000000000824852c                GPSB_SafetyEnableMonitor
                0x0000000008248758                GPSB_SafetyDisableMonitor
                0x0000000008248828                GPSB_SafetyGetStatus
 .text          0x00000000082489fc        0x0 /home/junghyun/topst/cr5-bsp/sources/build/tcc805x/gcc/tcc805x-freertos-debug/obj/gpsb_reg.o
 .text          0x00000000082489fc      0xedc /home/junghyun/topst/cr5-bsp/sources/build/tcc805x/gcc/tcc805x-freertos-debug/obj/timer.o
                0x0000000008248c34                TIMER_InterruptClear
                0x0000000008248cac                TIMER_Enable
                0x0000000008248cf8                TIMER_EnableWithMode
                0x0000000008248d80                TIMER_EnableWithCfg
                0x0000000008249500                TIMER_Disable
                0x00000000082496b4                TIMER_Init
 .text          0x00000000082498d8     0x3b9c /home/junghyun/topst/cr5-bsp/sources/build/tcc805x/gcc/tcc805x-freertos-debug/obj/uart.o
                0x000000000824c690                UART_Open
                0x000000000824c82c                UART_Close
                0x000000000824ca00                UART_Read
                0x000000000824cb90                UART_Write
                0x000000000824ccfc                UART_GetData
                0x000000000824ceb0                UART_GetChar
                0x000000000824d024                UART_PutChar
                0x000000000824d128                UART_SetLineControlReg
                0x000000000824d1b0                UART_SetInterruptClearReg
                0x000000000824d1e8                UART_SetErrorClearReg
                0x000000000824d220                UART_GetReceiveStatusReg
                0x000000000824d258                UART_GetRawInterruptStatusReg
                0x000000000824d290                UART_Init
                0x000000000824d2f8                UART_ISR
 .text          0x000000000824d474     0x1238 /home/junghyun/topst/cr5-bsp/sources/build/tcc805x/gcc/tcc805x-freertos-debug/obj/udma.o
                0x000000000824d474                UDMA_InterruptEnable
                0x000000000824d570                UDMA_InterruptDisable
                0x000000000824d66c                UDMA_SetAddrIncrement
                0x000000000824d764                UDMA_SetTransferWidth
                0x000000000824d85c                UDMA_SetBurstSize
                0x000000000824d954                UDMA_SetTransferSize
                0x000000000824da2c                UDMA_SetFlowControl
                0x000000000824db04                UDMA_Reset
                0x000000000824db84                UDMA_SetPeri
                0x000000000824dc38                UDMA_GetTransferSize
                0x000000000824df5c                UDMA_ChannelEnable
                0x000000000824e024                UDMA_ChannelDisable
                0x000000000824e0ec                UDMA_SetSrcAddr
                0x000000000824e194                UDMA_SetDestAddr
                0x000000000824e23c                UDMA_SetlliAddr
                0x000000000824e2e4                UDMA_GetDestAddr
                0x000000000824e394                UDMA_TransferMem2Mem
                0x000000000824e47c                UDMA_Init
 .text          0x000000000824e6ac      0x69c /home/junghyun/topst/cr5-bsp/sources/build/tcc805x/gcc/tcc805x-freertos-debug/obj/wdt.o
                0x000000000824e960                WDT_KickPing
                0x000000000824e980                WDT_ResetSystem
                0x000000000824ea04                WDT_Stop
                0x000000000824ea88                WDT_SmMode
                0x000000000824ec3c                WDT_Init
 .text          0x000000000824ed48      0x530 /home/junghyun/topst/cr5-bsp/sources/build/tcc805x/gcc/tcc805x-freertos-debug/obj/dse.o
                0x000000000824ed48                DSE_WriteLock
                0x000000000824f07c                DSE_Deinit
                0x000000000824f0d8                DSE_Init
                0x000000000824f248                DSE_GetGrpSts
 .text          0x000000000824f278      0xc5c /home/junghyun/topst/cr5-bsp/sources/build/tcc805x/gcc/tcc805x-freertos-debug/obj/midf.o
                0x000000000824f278                MIDF_FilterInitialize
                0x000000000824f514                MIDF_RegisterFilterRegion
                0x000000000824f858                MIDF_UnregisterFilterRegion
                0x000000000824fc44                MIDF_RegisterWriteLockSafetyMechanism
                0x000000000824fd40                MIDF_ConfigSoftFaultCheckSafetyMechanism
 .text          0x000000000824fed4      0xa08 /home/junghyun/topst/cr5-bsp/sources/build/tcc805x/gcc/tcc805x-freertos-debug/obj/pmu_reset.o
                0x000000000824fed4                PMU_ResetPreCfg
                0x0000000008250058                PMU_ResetSDMRstMskCfg
                0x00000000082501a0                PMU_ResetTRVCRstMskCfg
                0x00000000082502f4                PMU_ResetColdReset
                0x000000000825031c                PMU_ResetAPSystemReboot
                0x00000000082507bc                PMU_ResetSCWDTInit
 .text          0x00000000082508dc     0x3668 /home/junghyun/topst/cr5-bsp/sources/build/tcc805x/gcc/tcc805x-freertos-debug/obj/tasks.o
                0x00000000082508dc                xTaskCreateStatic
                0x00000000082509c4                xTaskCreate
                0x0000000008250e20                vTaskDelete
                0x0000000008250f74                vTaskDelayUntil
                0x00000000082510b4                vTaskDelay
                0x0000000008251124                eTaskGetState
                0x0000000008251270                uxTaskPriorityGet
                0x00000000082512c8                uxTaskPriorityGetFromISR
                0x000000000825132c                vTaskPrioritySet
                0x0000000008251544                vTaskSuspend
                0x0000000008251724                vTaskResume
                0x0000000008251834                xTaskResumeFromISR
                0x000000000825196c                vTaskStartScheduler
                0x0000000008251a88                vTaskEndScheduler
                0x0000000008251ab0                vTaskSuspendAll
                0x0000000008251ae8                xTaskResumeAll
                0x0000000008251cf0                xTaskGetTickCount
                0x0000000008251d24                xTaskGetTickCountFromISR
                0x0000000008251d64                uxTaskGetNumberOfTasks
                0x0000000008251d88                pcTaskGetName
                0x0000000008251f94                xTaskGetHandle
                0x00000000082520c8                xTaskCatchUpTicks
                0x0000000008252134                xTaskAbortDelay
                0x0000000008252278                xTaskIncrementTick
                0x0000000008252520                vTaskSwitchContext
                0x00000000082526fc                vTaskPlaceOnEventList
                0x0000000008252754                vTaskPlaceOnUnorderedEventList
                0x00000000082527e0                vTaskPlaceOnEventListRestricted
                0x0000000008252850                xTaskRemoveFromEventList
                0x000000000825298c                vTaskRemoveFromUnorderedEventList
                0x0000000008252aa0                vTaskSetTimeOutState
                0x0000000008252afc                vTaskInternalSetTimeOutState
                0x0000000008252b44                xTaskCheckForTimeOut
                0x0000000008252c98                vTaskMissedYield
                0x0000000008252f40                xTaskGetCurrentTaskHandle
                0x0000000008252f70                xTaskGetSchedulerState
                0x0000000008252fd8                xTaskPriorityInherit
                0x0000000008253174                xTaskPriorityDisinherit
                0x00000000082532c0                vTaskPriorityDisinheritAfterTimeout
                0x0000000008253460                uxTaskResetEventItemValue
                0x00000000082534b8                pvTaskIncrementMutexHeldCount
                0x0000000008253508                ulTaskNotifyTake
                0x00000000082535f4                xTaskNotifyWait
                0x0000000008253724                xTaskGenericNotify
                0x000000000825391c                xTaskGenericNotifyFromISR
                0x0000000008253b74                vTaskNotifyGiveFromISR
                0x0000000008253cfc                xTaskNotifyStateClear
                0x0000000008253d7c                ulTaskNotifyValueClear
 .text          0x0000000008253f44      0x294 /home/junghyun/topst/cr5-bsp/sources/build/tcc805x/gcc/tcc805x-freertos-debug/obj/list.o
                0x0000000008253f44                vListInitialise
                0x0000000008253fac                vListInitialiseItem
                0x0000000008253fd8                vListInsertEnd
                0x0000000008254060                vListInsert
                0x0000000008254138                uxListRemove
 .text          0x00000000082541d8     0x2278 /home/junghyun/topst/cr5-bsp/sources/build/tcc805x/gcc/tcc805x-freertos-debug/obj/queue.o
                0x00000000082541d8                xQueueGenericReset
                0x0000000008254304                xQueueGenericCreateStatic
                0x000000000825440c                xQueueGenericCreate
                0x0000000008254598                xQueueCreateMutex
                0x00000000082545ec                xQueueCreateMutexStatic
                0x000000000825464c                xQueueGetMutexHolder
                0x00000000082546a4                xQueueGetMutexHolderFromISR
                0x0000000008254700                xQueueGiveMutexRecursive
                0x000000000825479c                xQueueTakeMutexRecursive
                0x0000000008254840                xQueueCreateCountingSemaphoreStatic
                0x00000000082548c4                xQueueCreateCountingSemaphore
                0x0000000008254938                xQueueGenericSend
                0x0000000008254c0c                xQueueGenericSendFromISR
                0x0000000008254df0                xQueueGiveFromISR
                0x0000000008254f88                xQueueReceive
                0x00000000082551d0                xQueueSemaphoreTake
                0x0000000008255480                xQueuePeek
                0x00000000082556d0                xQueueReceiveFromISR
                0x0000000008255818                xQueuePeekFromISR
                0x00000000082558f8                uxQueueMessagesWaiting
                0x000000000825593c                uxQueueSpacesAvailable
                0x0000000008255994                uxQueueMessagesWaitingFromISR
                0x00000000082559dc                vQueueDelete
                0x0000000008255e30                xQueueIsQueueEmptyFromISR
                0x0000000008255ee4                xQueueIsQueueFullFromISR
                0x0000000008255f4c                vQueueAddToRegistry
                0x0000000008255fe0                pcQueueGetName
                0x000000000825606c                vQueueUnregisterQueue
                0x0000000008256108                vQueueWaitForMessageRestricted
                0x00000000082561ac                xQueueCreateSet
                0x00000000082561e0                xQueueAddToSet
                0x0000000008256258                xQueueRemoveFromSet
                0x00000000082562dc                xQueueSelectFromSet
                0x000000000825631c                xQueueSelectFromSetFromISR
 .text          0x0000000008256450      0x8e4 /home/junghyun/topst/cr5-bsp/sources/build/tcc805x/gcc/tcc805x-freertos-debug/obj/event_groups.o
                0x0000000008256450                xEventGroupCreateStatic
                0x00000000082564d4                xEventGroupCreate
                0x0000000008256530                xEventGroupSync
                0x0000000008256718                xEventGroupWaitBits
                0x0000000008256950                xEventGroupClearBits
                0x00000000082569d0                xEventGroupGetBitsFromISR
                0x0000000008256a14                xEventGroupSetBits
                0x0000000008256bc8                vEventGroupDelete
                0x0000000008256c5c                vEventGroupSetBitsCallback
                0x0000000008256c88                vEventGroupClearBitsCallback
 .text          0x0000000008256d34      0xfe0 /home/junghyun/topst/cr5-bsp/sources/build/tcc805x/gcc/tcc805x-freertos-debug/obj/timers.o
                0x0000000008256d34                xTimerCreateTimerTask
                0x0000000008256e08                xTimerCreate
                0x0000000008256e7c                xTimerCreateStatic
                0x0000000008256fc4                xTimerGenericCommand
                0x00000000082570b8                xTimerGetTimerDaemonTaskHandle
                0x00000000082570f4                xTimerGetPeriod
                0x0000000008257134                vTimerSetReloadMode
                0x00000000082571b4                uxTimerGetReloadMode
                0x000000000825721c                xTimerGetExpiryTime
                0x0000000008257264                pcTimerGetName
                0x0000000008257b24                xTimerIsTimerActive
                0x0000000008257b8c                pvTimerGetTimerID
                0x0000000008257bd8                vTimerSetTimerID
                0x0000000008257c24                xTimerPendFunctionCallFromISR
                0x0000000008257c90                xTimerPendFunctionCall
 .text          0x0000000008257d14     0x126c /home/junghyun/topst/cr5-bsp/sources/build/tcc805x/gcc/tcc805x-freertos-debug/obj/stream_buffer.o
                0x0000000008257d14                xStreamBufferGenericCreate
                0x0000000008257dec                xStreamBufferGenericCreateStatic
                0x0000000008257f10                vStreamBufferDelete
                0x0000000008257f74                xStreamBufferReset
                0x0000000008258014                xStreamBufferSetTriggerLevel
                0x000000000825809c                xStreamBufferSpacesAvailable
                0x0000000008258138                xStreamBufferBytesAvailable
                0x000000000825817c                xStreamBufferSend
                0x0000000008258364                xStreamBufferSendFromISR
                0x0000000008258564                xStreamBufferReceive
                0x0000000008258708                xStreamBufferNextMessageLengthBytes
                0x00000000082587c8                xStreamBufferReceiveFromISR
                0x0000000008258998                xStreamBufferIsEmpty
                0x0000000008258a08                xStreamBufferIsFull
                0x0000000008258a94                xStreamBufferSendCompletedFromISR
                0x0000000008258b30                xStreamBufferReceiveCompletedFromISR
 .text          0x0000000008258f80      0x8b8 /home/junghyun/topst/cr5-bsp/sources/build/tcc805x/gcc/tcc805x-freertos-debug/obj/port.o
                0x0000000008258f80                pxPortInitialiseStack
                0x0000000008259214                xPortStartScheduler
                0x0000000008259358                vPortEndScheduler
                0x0000000008259388                vPortEnterCritical
                0x00000000082593e4                vPortExitCritical
                0x0000000008259470                FreeRTOS_Tick_Handler
                0x0000000008259504                vPortTaskUsesFPU
                0x000000000825952c                vPortClearInterruptMask
                0x0000000008259588                ulPortSetInterruptMask
                0x0000000008259600                vPortValidateInterruptPriority
                0x0000000008259634                vApplicationGetIdleTaskMemory
                0x0000000008259688                vInitialiseTimerForRunTimeStats
                0x00000000082596a0                vApplicationStackOverflowHook
                0x00000000082596c4                vApplicationGetTimerTaskMemory
                0x0000000008259718                vConfigureTickInterrupt
                0x00000000082597a0                vClearTickInterrupt
                0x00000000082597b8                vApplicationFPUSafeIRQHandler
                0x00000000082597dc                xPortGetInterruptNestingCount
                0x0000000008259800                heap_init
 .text          0x0000000008259838      0x8ec /home/junghyun/topst/cr5-bsp/sources/build/tcc805x/gcc/tcc805x-freertos-debug/obj/heap_5.o
                0x0000000008259838                pvPortMalloc
                0x0000000008259a90                vPortFree
                0x0000000008259bb8                xPortGetFreeHeapSize
                0x0000000008259bdc                xPortGetMinimumEverFreeHeapSize
                0x0000000008259d58                vPortDefineHeapRegions
                0x0000000008259fd0                vPortGetHeapStats
 .text          0x000000000825a124      0x32c /home/junghyun/topst/cr5-bsp/sources/build/tcc805x/gcc/tcc805x-freertos-debug/obj/sal_api.o
                0x000000000825a124                SAL_RegisterFunction
 .text          0x000000000825a450     0x2714 /home/junghyun/topst/cr5-bsp/sources/build/tcc805x/gcc/tcc805x-freertos-debug/obj/sal_freertos_impl.o
                0x000000000825c708                SAL_Init
 .text          0x000000000825cb64       0x44 /home/junghyun/topst/cr5-bsp/sources/build/tcc805x/gcc/tcc805x-freertos-debug/obj/project_ipc.o
                0x000000000825cb64                ipc_send_on_sound
                0x000000000825cb80                ipc_send_data
 .text          0x000000000825cba8      0x284 /home/junghyun/topst/cr5-bsp/sources/build/tcc805x/gcc/tcc805x-freertos-debug/obj/project_i2c.o
                0x000000000825cba8                I2cRead
                0x000000000825cdb0                CreateI2CTask
 .text          0x000000000825ce2c        0x0 /home/junghyun/topst/cr5-bsp/sources/build/tcc805x/gcc/tcc805x-freertos-debug/obj/vector.o
 .text          0x000000000825ce2c        0x4 /home/junghyun/topst/cr5-bsp/sources/build/tcc805x/gcc/tcc805x-freertos-debug/obj/vfp_init.o
                0x000000000825ce2c                vfp_init
 .text          0x000000000825ce30        0xc /home/junghyun/topst/cr5-bsp/sources/build/tcc805x/gcc/tcc805x-freertos-debug/obj/arm_a.o
                0x000000000825ce30                ARM_DSB
 *fill*         0x000000000825ce3c        0x4 
 .text          0x000000000825ce40      0x270 /home/junghyun/topst/cr5-bsp/sources/build/tcc805x/gcc/tcc805x-freertos-debug/obj/portASM.o
                0x000000000825ce40                FreeRTOS_SWI_Handler
                0x000000000825cec8                vPortRestoreTaskContext
                0x000000000825cf20                FreeRTOS_IRQ_Handler
                0x000000000825d070                vApplicationIRQHandler
 .text          0x000000000825d0b0       0xb8 /home/junghyun/topst/cr5-bsp/sources/build/tcc805x/gcc/tcc805x-freertos-debug/obj/freertos.o
                0x000000000825d0b0                FreeRTOS_ARM_ExceptUndefInstrHndlr
                0x000000000825d0c4                FreeRTOS_ARM_ExceptSwiHndlr
                0x000000000825d0c8                FreeRTOS_ARM_ExceptPrefetchAbortHndlr
                0x000000000825d0e0                FreeRTOS_ARM_ExceptDataAbortHndlr
                0x000000000825d110                FreeRTOS_ARM_ExceptIrqHndlr
                0x000000000825d114                FreeRTOS_ARM_ExceptFiqHndlr
                0x000000000825d12c                FreeRTOS_ARM_DRegCntGet
                0x000000000825d134                CPU_WaitForEvent
                0x000000000825d140                __DSB
                0x000000000825d14c                CPU_SR_Save
                0x000000000825d15c                CPU_SR_Restore
 .text          0x000000000825d168       0x18 /home/junghyun/topst/cr5-bsp/sources/build/tcc805x/gcc/tcc805x-freertos-debug/obj/sal.o
                0x000000000825d168                ARM_ExceptUndefInstrHndlr
                0x000000000825d16c                ARM_ExceptSwiHndlr
                0x000000000825d170                ARM_ExceptPrefetchAbortHndlr
                0x000000000825d174                ARM_ExceptDataAbortHndlr
                0x000000000825d178                ARM_ExceptIrqHndlr
                0x000000000825d17c                ARM_ExceptFiqHndlr
 .text          0x000000000825d180       0x30 /home/junghyun/topst/buildtools/gcc-linaro-7.2.1-2017.11-x86_64_arm-eabi/arm-eabi/libc/usr/lib/libc.a(lib_a-atoi.o)
                0x000000000825d180                atoi
                0x000000000825d198                _atoi_r
 .text          0x000000000825d1b0       0x30 /home/junghyun/topst/buildtools/gcc-linaro-7.2.1-2017.11-x86_64_arm-eabi/arm-eabi/libc/usr/lib/libc.a(lib_a-atol.o)
                0x000000000825d1b0                atol
                0x000000000825d1c8                _atol_r
 .text          0x000000000825d1e0      0x104 /home/junghyun/topst/buildtools/gcc-linaro-7.2.1-2017.11-x86_64_arm-eabi/arm-eabi/libc/usr/lib/libc.a(lib_a-memcmp.o)
                0x000000000825d1e0                memcmp
 .text          0x000000000825d2e4      0x110 /home/junghyun/topst/buildtools/gcc-linaro-7.2.1-2017.11-x86_64_arm-eabi/arm-eabi/libc/usr/lib/libc.a(lib_a-memcpy-stub.o)
                0x000000000825d2e4                memcpy
 .text          0x000000000825d3f4      0x114 /home/junghyun/topst/buildtools/gcc-linaro-7.2.1-2017.11-x86_64_arm-eabi/arm-eabi/libc/usr/lib/libc.a(lib_a-memset.o)
                0x000000000825d3f4                memset
 .text          0x000000000825d508       0x60 /home/junghyun/topst/buildtools/gcc-linaro-7.2.1-2017.11-x86_64_arm-eabi/arm-eabi/libc/usr/lib/libc.a(lib_a-strlen-stub.o)
                0x000000000825d508                strlen
 .text          0x000000000825d568      0x100 /home/junghyun/topst/buildtools/gcc-linaro-7.2.1-2017.11-x86_64_arm-eabi/arm-eabi/libc/usr/lib/libc.a(lib_a-strncmp.o)
                0x000000000825d568                strncmp
 .text          0x000000000825d668       0xe0 /home/junghyun/topst/buildtools/gcc-linaro-7.2.1-2017.11-x86_64_arm-eabi/arm-eabi/libc/usr/lib/libc.a(lib_a-strncpy.o)
                0x000000000825d668                strncpy
 .text          0x000000000825d748       0x5c /home/junghyun/topst/buildtools/gcc-linaro-7.2.1-2017.11-x86_64_arm-eabi/arm-eabi/libc/usr/lib/libc.a(lib_a-strnlen.o)
                0x000000000825d748                strnlen
 .text          0x000000000825d7a4      0x27c /home/junghyun/topst/buildtools/gcc-linaro-7.2.1-2017.11-x86_64_arm-eabi/arm-eabi/libc/usr/lib/libc.a(lib_a-strtol.o)
                0x000000000825d960                _strtol_r
                0x000000000825d99c                strtol_l
                0x000000000825d9d4                strtol
 .text          0x000000000825da20      0x28c /home/junghyun/topst/buildtools/gcc-linaro-7.2.1-2017.11-x86_64_arm-eabi/arm-eabi/libc/usr/lib/libc.a(lib_a-strtoul.o)
                0x000000000825dbec                _strtoul_r
                0x000000000825dc28                strtoul_l
                0x000000000825dc60                strtoul
 .text          0x000000000825dcac        0x0 /home/junghyun/topst/buildtools/gcc-linaro-7.2.1-2017.11-x86_64_arm-eabi/arm-eabi/libc/usr/lib/libc.a(lib_a-impure.o)
 .text          0x000000000825dcac      0xd0c /home/junghyun/topst/buildtools/gcc-linaro-7.2.1-2017.11-x86_64_arm-eabi/arm-eabi/libc/usr/lib/libc.a(lib_a-locale.o)
                0x000000000825dd40                __loadlocale
                0x000000000825e578                __get_locale_env
                0x000000000825e60c                _setlocale_r
                0x000000000825e948                __locale_mb_cur_max
                0x000000000825e970                __locale_ctype_ptr_l
                0x000000000825e978                __locale_ctype_ptr
                0x000000000825e9a0                setlocale
 .text          0x000000000825e9b8      0x744 /home/junghyun/topst/buildtools/gcc-linaro-7.2.1-2017.11-x86_64_arm-eabi/arm-eabi/libc/usr/lib/libc.a(lib_a-mbtowc_r.o)
                0x000000000825e9b8                _mbtowc_r
                0x000000000825e9ec                __ascii_mbtowc
                0x000000000825ea30                __utf8_mbtowc
                0x000000000825ed38                __sjis_mbtowc
                0x000000000825ee0c                __eucjp_mbtowc
                0x000000000825ef44                __jis_mbtowc
 .text          0x000000000825f0fc       0x70 /home/junghyun/topst/buildtools/gcc-linaro-7.2.1-2017.11-x86_64_arm-eabi/arm-eabi/libc/usr/lib/libc.a(lib_a-strcasecmp.o)
                0x000000000825f0fc                strcasecmp
 .text          0x000000000825f16c       0x74 /home/junghyun/topst/buildtools/gcc-linaro-7.2.1-2017.11-x86_64_arm-eabi/arm-eabi/libc/usr/lib/libc.a(lib_a-strcat.o)
                0x000000000825f16c                strcat
 .text          0x000000000825f1e0      0x184 /home/junghyun/topst/buildtools/gcc-linaro-7.2.1-2017.11-x86_64_arm-eabi/arm-eabi/libc/usr/lib/libc.a(lib_a-strchr.o)
                0x000000000825f1e0                strchr
 .text          0x000000000825f364      0x224 /home/junghyun/topst/buildtools/gcc-linaro-7.2.1-2017.11-x86_64_arm-eabi/arm-eabi/libc/usr/lib/libc.a(lib_a-strcmp.o)
                0x000000000825f364                strcmp
 .text          0x000000000825f588       0xf0 /home/junghyun/topst/buildtools/gcc-linaro-7.2.1-2017.11-x86_64_arm-eabi/arm-eabi/libc/usr/lib/libc.a(lib_a-strcpy.o)
                0x000000000825f588                strcpy
 .text          0x000000000825f678       0x54 /home/junghyun/topst/buildtools/gcc-linaro-7.2.1-2017.11-x86_64_arm-eabi/arm-eabi/libc/usr/lib/libc.a(lib_a-strlcpy.o)
                0x000000000825f678                strlcpy
 .text          0x000000000825f6cc       0x94 /home/junghyun/topst/buildtools/gcc-linaro-7.2.1-2017.11-x86_64_arm-eabi/arm-eabi/libc/usr/lib/libc.a(lib_a-strncasecmp.o)
                0x000000000825f6cc                strncasecmp
 .text          0x000000000825f760      0x35c /home/junghyun/topst/buildtools/gcc-linaro-7.2.1-2017.11-x86_64_arm-eabi/arm-eabi/libc/usr/lib/libc.a(lib_a-wctomb_r.o)
                0x000000000825f760                _wctomb_r
                0x000000000825f794                __ascii_wctomb
                0x000000000825f7bc                __utf8_wctomb
                0x000000000825f8a8                __sjis_wctomb
                0x000000000825f930                __eucjp_wctomb
                0x000000000825f9e0                __jis_wctomb
 .text          0x000000000825fabc       0x10 /home/junghyun/topst/buildtools/gcc-linaro-7.2.1-2017.11-x86_64_arm-eabi/arm-eabi/libc/usr/lib/libc.a(lib_a-ctype_.o)
                0x000000000825fabc                __set_ctype
 .text          0x000000000825facc       0xec /home/junghyun/topst/buildtools/gcc-linaro-7.2.1-2017.11-x86_64_arm-eabi/arm-eabi/libc/usr/lib/libc.a(lib_a-getenv_r.o)
                0x000000000825facc                _findenv_r
                0x000000000825fb9c                _getenv_r
 .text          0x000000000825fbb8        0x0 /home/junghyun/topst/buildtools/gcc-linaro-7.2.1-2017.11-x86_64_arm-eabi/arm-eabi/libc/usr/lib/libc.a(lib_a-environ.o)
 .text          0x000000000825fbb8        0x8 /home/junghyun/topst/buildtools/gcc-linaro-7.2.1-2017.11-x86_64_arm-eabi/arm-eabi/libc/usr/lib/libc.a(lib_a-envlock.o)
                0x000000000825fbb8                __env_lock
                0x000000000825fbbc                __env_unlock
 .text          0x000000000825fbc0      0x114 /home/junghyun/topst/buildtools/gcc-linaro-7.2.1-2017.11-x86_64_arm-eabi/arm-eabi/libc/usr/lib/libgcc.a(_udivsi3.o)
                0x000000000825fbc0                __udivsi3
                0x000000000825fbc0                __aeabi_uidiv
                0x000000000825fcb4                __aeabi_uidivmod
 .text          0x000000000825fcd4        0x4 /home/junghyun/topst/buildtools/gcc-linaro-7.2.1-2017.11-x86_64_arm-eabi/arm-eabi/libc/usr/lib/libgcc.a(_dvmd_tls.o)
                0x000000000825fcd4                __aeabi_ldiv0
                0x000000000825fcd4                __aeabi_idiv0
 .text          0x000000000825fcd8       0x3c /home/junghyun/topst/buildtools/gcc-linaro-7.2.1-2017.11-x86_64_arm-eabi/arm-eabi/libc/usr/lib/libgcc.a(_aeabi_uldivmod.o)
                0x000000000825fcd8                __aeabi_uldivmod
 .text          0x000000000825fd14      0x12c /home/junghyun/topst/buildtools/gcc-linaro-7.2.1-2017.11-x86_64_arm-eabi/arm-eabi/libc/usr/lib/libgcc.a(_udivmoddi4.o)
                0x000000000825fd14                __udivmoddi4
 .text          0x000000000825fe40       0x28 /home/junghyun/topst/buildtools/gcc-linaro-7.2.1-2017.11-x86_64_arm-eabi/arm-eabi/libc/usr/lib/libgcc.a(_clzdi2.o)
                0x000000000825fe40                __clzdi2
 .text          0x000000000825fe68       0x48 /home/junghyun/topst/buildtools/gcc-linaro-7.2.1-2017.11-x86_64_arm-eabi/arm-eabi/libc/usr/lib/libgcc.a(_clzsi2.o)
                0x000000000825fe68                __clzsi2
 .text.__stub   0x000000000825feb0        0x8 linker stubs
                0x000000000825feb8                __TEXT_END__ = .
                0x000000000825feb8                . = ALIGN (0x4)

.rodata         0x000000000825feb8     0xc5e8
                0x000000000825feb8                __RODATA_START__ = .
 *(.rodata)
 .rodata        0x000000000825feb8       0x35 /home/junghyun/topst/cr5-bsp/sources/build/tcc805x/gcc/tcc805x-freertos-debug/obj/main.o
 *fill*         0x000000000825feed        0x3 
 .rodata        0x000000000825fef0      0xb01 /home/junghyun/topst/cr5-bsp/sources/build/tcc805x/gcc/tcc805x-freertos-debug/obj/can_demo.o
 *fill*         0x00000000082609f1        0x3 
 .rodata        0x00000000082609f4      0x5d5 /home/junghyun/topst/cr5-bsp/sources/build/tcc805x/gcc/tcc805x-freertos-debug/obj/console.o
 *fill*         0x0000000008260fc9        0x3 
 .rodata        0x0000000008260fcc      0x101 /home/junghyun/topst/cr5-bsp/sources/build/tcc805x/gcc/tcc805x-freertos-debug/obj/fwug.o
 *fill*         0x00000000082610cd        0x3 
 .rodata        0x00000000082610d0      0x145 /home/junghyun/topst/cr5-bsp/sources/build/tcc805x/gcc/tcc805x-freertos-debug/obj/key_i2c.o
 *fill*         0x0000000008261215        0x3 
 .rodata        0x0000000008261218      0x267 /home/junghyun/topst/cr5-bsp/sources/build/tcc805x/gcc/tcc805x-freertos-debug/obj/key.o
 *fill*         0x000000000826147f        0x1 
 .rodata        0x0000000008261480        0x7 /home/junghyun/topst/cr5-bsp/sources/build/tcc805x/gcc/tcc805x-freertos-debug/obj/system_monitoring.o
 *fill*         0x0000000008261487        0x1 
 .rodata        0x0000000008261488      0x12b /home/junghyun/topst/cr5-bsp/sources/build/tcc805x/gcc/tcc805x-freertos-debug/obj/bootctrl.o
 *fill*         0x00000000082615b3        0x1 
 .rodata        0x00000000082615b4       0x24 /home/junghyun/topst/cr5-bsp/sources/build/tcc805x/gcc/tcc805x-freertos-debug/obj/reset_demo.o
 .rodata        0x00000000082615d8      0x5af /home/junghyun/topst/cr5-bsp/sources/build/tcc805x/gcc/tcc805x-freertos-debug/obj/dse_test.o
 *fill*         0x0000000008261b87        0x1 
 .rodata        0x0000000008261b88       0xe9 /home/junghyun/topst/cr5-bsp/sources/build/tcc805x/gcc/tcc805x-freertos-debug/obj/fmu_test.o
 *fill*         0x0000000008261c71        0x3 
 .rodata        0x0000000008261c74      0x1ba /home/junghyun/topst/cr5-bsp/sources/build/tcc805x/gcc/tcc805x-freertos-debug/obj/gdma_test.o
 *fill*         0x0000000008261e2e        0x2 
 .rodata        0x0000000008261e30      0x1f6 /home/junghyun/topst/cr5-bsp/sources/build/tcc805x/gcc/tcc805x-freertos-debug/obj/gic_test.o
 *fill*         0x0000000008262026        0x2 
 .rodata        0x0000000008262028      0x279 /home/junghyun/topst/cr5-bsp/sources/build/tcc805x/gcc/tcc805x-freertos-debug/obj/gpio_test.o
 *fill*         0x00000000082622a1        0x3 
 .rodata        0x00000000082622a4      0xbcb /home/junghyun/topst/cr5-bsp/sources/build/tcc805x/gcc/tcc805x-freertos-debug/obj/gpsb_test.o
 *fill*         0x0000000008262e6f        0x1 
 .rodata        0x0000000008262e70      0xb69 /home/junghyun/topst/cr5-bsp/sources/build/tcc805x/gcc/tcc805x-freertos-debug/obj/hsm_test.o
 *fill*         0x00000000082639d9        0x3 
 .rodata        0x00000000082639dc      0x441 /home/junghyun/topst/cr5-bsp/sources/build/tcc805x/gcc/tcc805x-freertos-debug/obj/i2c_test.o
 *fill*         0x0000000008263e1d        0x3 
 .rodata        0x0000000008263e20       0xe6 /home/junghyun/topst/cr5-bsp/sources/build/tcc805x/gcc/tcc805x-freertos-debug/obj/ictc_test.o
 *fill*         0x0000000008263f06        0x2 
 .rodata        0x0000000008263f08       0xdb /home/junghyun/topst/cr5-bsp/sources/build/tcc805x/gcc/tcc805x-freertos-debug/obj/lin_test.o
 *fill*         0x0000000008263fe3        0x1 
 .rodata        0x0000000008263fe4      0x126 /home/junghyun/topst/cr5-bsp/sources/build/tcc805x/gcc/tcc805x-freertos-debug/obj/pdm_test.o
 *fill*         0x000000000826410a        0x2 
 .rodata        0x000000000826410c      0x55f /home/junghyun/topst/cr5-bsp/sources/build/tcc805x/gcc/tcc805x-freertos-debug/obj/pmio_test.o
 *fill*         0x000000000826466b        0x1 
 .rodata        0x000000000826466c      0x4af /home/junghyun/topst/cr5-bsp/sources/build/tcc805x/gcc/tcc805x-freertos-debug/obj/timer_test.o
 *fill*         0x0000000008264b1b        0x1 
 .rodata        0x0000000008264b1c      0xa37 /home/junghyun/topst/cr5-bsp/sources/build/tcc805x/gcc/tcc805x-freertos-debug/obj/wdt_test.o
 *fill*         0x0000000008265553        0x1 
 .rodata        0x0000000008265554       0x68 /home/junghyun/topst/cr5-bsp/sources/build/tcc805x/gcc/tcc805x-freertos-debug/obj/mptool.o
 .rodata        0x00000000082655bc      0x1b3 /home/junghyun/topst/cr5-bsp/sources/build/tcc805x/gcc/tcc805x-freertos-debug/obj/ipc_os.o
 *fill*         0x000000000826576f        0x1 
 .rodata        0x0000000008265770       0xe2 /home/junghyun/topst/cr5-bsp/sources/build/tcc805x/gcc/tcc805x-freertos-debug/obj/ipc_buffer.o
 *fill*         0x0000000008265852        0x2 
 .rodata        0x0000000008265854      0x183 /home/junghyun/topst/cr5-bsp/sources/build/tcc805x/gcc/tcc805x-freertos-debug/obj/ipc_ctl.o
 *fill*         0x00000000082659d7        0x1 
 .rodata        0x00000000082659d8       0x38 /home/junghyun/topst/cr5-bsp/sources/build/tcc805x/gcc/tcc805x-freertos-debug/obj/ipc_parser.o
 .rodata        0x0000000008265a10      0x262 /home/junghyun/topst/cr5-bsp/sources/build/tcc805x/gcc/tcc805x-freertos-debug/obj/ipc_api.o
 *fill*         0x0000000008265c72        0x2 
 .rodata        0x0000000008265c74      0x3aa /home/junghyun/topst/cr5-bsp/sources/build/tcc805x/gcc/tcc805x-freertos-debug/obj/lin.o
 *fill*         0x000000000826601e        0x2 
 .rodata        0x0000000008266020      0x209 /home/junghyun/topst/cr5-bsp/sources/build/tcc805x/gcc/tcc805x-freertos-debug/obj/sdm.o
 *fill*         0x0000000008266229        0x3 
 .rodata        0x000000000826622c      0x38b /home/junghyun/topst/cr5-bsp/sources/build/tcc805x/gcc/tcc805x-freertos-debug/obj/hsm_manager.o
 *fill*         0x00000000082665b7        0x1 
 .rodata        0x00000000082665b8       0xf5 /home/junghyun/topst/cr5-bsp/sources/build/tcc805x/gcc/tcc805x-freertos-debug/obj/adc.o
 *fill*         0x00000000082666ad        0x3 
 .rodata        0x00000000082666b0       0x9f /home/junghyun/topst/cr5-bsp/sources/build/tcc805x/gcc/tcc805x-freertos-debug/obj/can.o
 *fill*         0x000000000826674f        0x1 
 .rodata        0x0000000008266750      0x4ee /home/junghyun/topst/cr5-bsp/sources/build/tcc805x/gcc/tcc805x-freertos-debug/obj/can_drv.o
 *fill*         0x0000000008266c3e        0x2 
 .rodata        0x0000000008266c40       0x25 /home/junghyun/topst/cr5-bsp/sources/build/tcc805x/gcc/tcc805x-freertos-debug/obj/debug.o
 *fill*         0x0000000008266c65        0x3 
 .rodata        0x0000000008266c68       0x3a /home/junghyun/topst/cr5-bsp/sources/build/tcc805x/gcc/tcc805x-freertos-debug/obj/bsp.o
 *fill*         0x0000000008266ca2        0x2 
 .rodata        0x0000000008266ca4      0x365 /home/junghyun/topst/cr5-bsp/sources/build/tcc805x/gcc/tcc805x-freertos-debug/obj/fmu.o
 *fill*         0x0000000008267009        0x3 
 .rodata        0x000000000826700c      0x164 /home/junghyun/topst/cr5-bsp/sources/build/tcc805x/gcc/tcc805x-freertos-debug/obj/gdma.o
 .rodata        0x0000000008267170      0x3d0 /home/junghyun/topst/cr5-bsp/sources/build/tcc805x/gcc/tcc805x-freertos-debug/obj/gic.o
 .rodata        0x0000000008267540       0x77 /home/junghyun/topst/cr5-bsp/sources/build/tcc805x/gcc/tcc805x-freertos-debug/obj/gpio.o
 *fill*         0x00000000082675b7        0x1 
 .rodata        0x00000000082675b8      0x93e /home/junghyun/topst/cr5-bsp/sources/build/tcc805x/gcc/tcc805x-freertos-debug/obj/i2c.o
 *fill*         0x0000000008267ef6        0x2 
 .rodata        0x0000000008267ef8      0x1ec /home/junghyun/topst/cr5-bsp/sources/build/tcc805x/gcc/tcc805x-freertos-debug/obj/i2c_reg.o
                0x0000000008267ef8                i2cport
 .rodata        0x00000000082680e4      0x32a /home/junghyun/topst/cr5-bsp/sources/build/tcc805x/gcc/tcc805x-freertos-debug/obj/ictc.o
 *fill*         0x000000000826840e        0x2 
 .rodata        0x0000000008268410      0x620 /home/junghyun/topst/cr5-bsp/sources/build/tcc805x/gcc/tcc805x-freertos-debug/obj/mbox_dev.o
 .rodata        0x0000000008268a30      0x342 /home/junghyun/topst/cr5-bsp/sources/build/tcc805x/gcc/tcc805x-freertos-debug/obj/mbox.o
 *fill*         0x0000000008268d72        0x2 
 .rodata        0x0000000008268d74       0xc0 /home/junghyun/topst/cr5-bsp/sources/build/tcc805x/gcc/tcc805x-freertos-debug/obj/mpu.o
                0x0000000008268d74                sMPUTable
 .rodata        0x0000000008268e34      0x1ea /home/junghyun/topst/cr5-bsp/sources/build/tcc805x/gcc/tcc805x-freertos-debug/obj/pdm.o
 *fill*         0x000000000826901e        0x2 
 .rodata        0x0000000008269020      0xc45 /home/junghyun/topst/cr5-bsp/sources/build/tcc805x/gcc/tcc805x-freertos-debug/obj/pmio_dev.o
 *fill*         0x0000000008269c65        0x3 
 .rodata        0x0000000008269c68     0x13b1 /home/junghyun/topst/cr5-bsp/sources/build/tcc805x/gcc/tcc805x-freertos-debug/obj/gpsb.o
 *fill*         0x000000000826b019        0x3 
 .rodata        0x000000000826b01c      0x2d8 /home/junghyun/topst/cr5-bsp/sources/build/tcc805x/gcc/tcc805x-freertos-debug/obj/gpsb_reg.o
                0x000000000826b01c                gpsbport
                0x000000000826b2dc                gpsb_sm
 .rodata        0x000000000826b2f4       0xe3 /home/junghyun/topst/cr5-bsp/sources/build/tcc805x/gcc/tcc805x-freertos-debug/obj/timer.o
 *fill*         0x000000000826b3d7        0x1 
 .rodata        0x000000000826b3d8      0x531 /home/junghyun/topst/cr5-bsp/sources/build/tcc805x/gcc/tcc805x-freertos-debug/obj/uart.o
 *fill*         0x000000000826b909        0x3 
 .rodata        0x000000000826b90c      0x13e /home/junghyun/topst/cr5-bsp/sources/build/tcc805x/gcc/tcc805x-freertos-debug/obj/udma.o
 *fill*         0x000000000826ba4a        0x2 
 .rodata        0x000000000826ba4c      0x18d /home/junghyun/topst/cr5-bsp/sources/build/tcc805x/gcc/tcc805x-freertos-debug/obj/wdt.o
 *fill*         0x000000000826bbd9        0x3 
 .rodata        0x000000000826bbdc       0xb8 /home/junghyun/topst/cr5-bsp/sources/build/tcc805x/gcc/tcc805x-freertos-debug/obj/dse.o
 .rodata        0x000000000826bc94       0xde /home/junghyun/topst/cr5-bsp/sources/build/tcc805x/gcc/tcc805x-freertos-debug/obj/pmu_reset.o
 *fill*         0x000000000826bd72        0x2 
 .rodata        0x000000000826bd74        0x5 /home/junghyun/topst/cr5-bsp/sources/build/tcc805x/gcc/tcc805x-freertos-debug/obj/tasks.o
 *fill*         0x000000000826bd79        0x3 
 .rodata        0x000000000826bd7c        0xd /home/junghyun/topst/cr5-bsp/sources/build/tcc805x/gcc/tcc805x-freertos-debug/obj/timers.o
 *fill*         0x000000000826bd89        0x3 
 .rodata        0x000000000826bd8c       0x20 /home/junghyun/topst/cr5-bsp/sources/build/tcc805x/gcc/tcc805x-freertos-debug/obj/port.o
                0x000000000826bd8c                ulICCIAR
                0x000000000826bd90                ulICCEOIR
                0x000000000826bd94                ulICCPMR
                0x000000000826bd98                ulMaxAPIPriorityMask
 .rodata        0x000000000826bdac        0x4 /home/junghyun/topst/cr5-bsp/sources/build/tcc805x/gcc/tcc805x-freertos-debug/obj/heap_5.o
 .rodata        0x000000000826bdb0      0x249 /home/junghyun/topst/cr5-bsp/sources/build/tcc805x/gcc/tcc805x-freertos-debug/obj/sal_freertos_impl.o
 *fill*         0x000000000826bff9        0x3 
 .rodata        0x000000000826bffc       0x55 /home/junghyun/topst/cr5-bsp/sources/build/tcc805x/gcc/tcc805x-freertos-debug/obj/project_i2c.o
 *fill*         0x000000000826c051        0x3 
 .rodata        0x000000000826c054        0x4 /home/junghyun/topst/buildtools/gcc-linaro-7.2.1-2017.11-x86_64_arm-eabi/arm-eabi/libc/usr/lib/libc.a(lib_a-impure.o)
                0x000000000826c054                _global_impure_ptr
 .rodata        0x000000000826c058      0x188 /home/junghyun/topst/buildtools/gcc-linaro-7.2.1-2017.11-x86_64_arm-eabi/arm-eabi/libc/usr/lib/libc.a(lib_a-locale.o)
                0x000000000826c074                __C_locale
 .rodata        0x000000000826c1e0       0x90 /home/junghyun/topst/buildtools/gcc-linaro-7.2.1-2017.11-x86_64_arm-eabi/arm-eabi/libc/usr/lib/libc.a(lib_a-mbtowc_r.o)
 .rodata        0x000000000826c270      0x101 /home/junghyun/topst/buildtools/gcc-linaro-7.2.1-2017.11-x86_64_arm-eabi/arm-eabi/libc/usr/lib/libc.a(lib_a-ctype_.o)
                0x000000000826c270                _ctype_
 *(.rodata.*)
 *fill*         0x000000000826c371        0x3 
 .rodata.str1.4
                0x000000000826c374      0x12c /home/junghyun/topst/buildtools/gcc-linaro-7.2.1-2017.11-x86_64_arm-eabi/arm-eabi/libc/usr/lib/libc.a(lib_a-locale.o)
                                        0x130 (size before relaxing)
 *(.const)
 *(.const.*)
                0x000000000826c4a0                . = ALIGN (0x20)
 *fill*         0x000000000826c4a0        0x0 
                0x000000000826c4a0                __RODATA_END__ = .

.vector         0x0000000006000000       0x60 load address 0x000000000826c4a0
                0x000000000826c4a0                __VECTOR_START_LOAD = LOADADDR (.vector)
                0x0000000006000000                __VECTOR_START__ = .
 *vector.o(.vector .text .rodata .rodata*)
 .vector        0x0000000006000000       0x50 /home/junghyun/topst/cr5-bsp/sources/build/tcc805x/gcc/tcc805x-freertos-debug/obj/vector.o
                0x0000000006000000                _vector
                0x0000000006000000                _start
                0x0000000006000024                ARM_Reserved
                0x0000000006000060                . = ALIGN (0x20)
 *fill*         0x0000000006000050       0x10 
                0x0000000006000060                __VECTOR_END__ = .

.data           0x0000000006000060     0x30e0 load address 0x000000000826c500
                0x000000000826c500                __DATA_START_LOAD = LOADADDR (.data)
                0x0000000006000060                __DATA_START__ = .
 *(.data)
 .data          0x0000000006000060        0x0 /home/junghyun/topst/cr5-bsp/sources/build/tcc805x/gcc/tcc805x-freertos-debug/obj/main.o
 .data          0x0000000006000060      0x2f4 /home/junghyun/topst/cr5-bsp/sources/build/tcc805x/gcc/tcc805x-freertos-debug/obj/can_demo.o
 .data          0x0000000006000354      0x198 /home/junghyun/topst/cr5-bsp/sources/build/tcc805x/gcc/tcc805x-freertos-debug/obj/console.o
 .data          0x00000000060004ec        0x0 /home/junghyun/topst/cr5-bsp/sources/build/tcc805x/gcc/tcc805x-freertos-debug/obj/fwug.o
 .data          0x00000000060004ec       0xf8 /home/junghyun/topst/cr5-bsp/sources/build/tcc805x/gcc/tcc805x-freertos-debug/obj/key_adc.o
 .data          0x00000000060005e4        0x0 /home/junghyun/topst/cr5-bsp/sources/build/tcc805x/gcc/tcc805x-freertos-debug/obj/key_gpio.o
 .data          0x00000000060005e4       0x74 /home/junghyun/topst/cr5-bsp/sources/build/tcc805x/gcc/tcc805x-freertos-debug/obj/key_i2c.o
 .data          0x0000000006000658        0x0 /home/junghyun/topst/cr5-bsp/sources/build/tcc805x/gcc/tcc805x-freertos-debug/obj/key.o
 .data          0x0000000006000658        0x0 /home/junghyun/topst/cr5-bsp/sources/build/tcc805x/gcc/tcc805x-freertos-debug/obj/system_monitoring.o
 .data          0x0000000006000658        0x8 /home/junghyun/topst/cr5-bsp/sources/build/tcc805x/gcc/tcc805x-freertos-debug/obj/bootctrl.o
 .data          0x0000000006000660        0x0 /home/junghyun/topst/cr5-bsp/sources/build/tcc805x/gcc/tcc805x-freertos-debug/obj/reset_demo.o
 .data          0x0000000006000660        0x0 /home/junghyun/topst/cr5-bsp/sources/build/tcc805x/gcc/tcc805x-freertos-debug/obj/adc_test.o
 .data          0x0000000006000660        0x0 /home/junghyun/topst/cr5-bsp/sources/build/tcc805x/gcc/tcc805x-freertos-debug/obj/dse_test.o
 .data          0x0000000006000660        0x0 /home/junghyun/topst/cr5-bsp/sources/build/tcc805x/gcc/tcc805x-freertos-debug/obj/fmu_test.o
 .data          0x0000000006000660        0x0 /home/junghyun/topst/cr5-bsp/sources/build/tcc805x/gcc/tcc805x-freertos-debug/obj/gdma_test.o
 .data          0x0000000006000660        0x0 /home/junghyun/topst/cr5-bsp/sources/build/tcc805x/gcc/tcc805x-freertos-debug/obj/gic_test.o
 .data          0x0000000006000660      0x628 /home/junghyun/topst/cr5-bsp/sources/build/tcc805x/gcc/tcc805x-freertos-debug/obj/gpio_test.o
 .data          0x0000000006000c88        0x0 /home/junghyun/topst/cr5-bsp/sources/build/tcc805x/gcc/tcc805x-freertos-debug/obj/gpsb_test.o
 .data          0x0000000006000c88      0x430 /home/junghyun/topst/cr5-bsp/sources/build/tcc805x/gcc/tcc805x-freertos-debug/obj/hsm_test.o
 .data          0x00000000060010b8        0x0 /home/junghyun/topst/cr5-bsp/sources/build/tcc805x/gcc/tcc805x-freertos-debug/obj/i2c_test.o
 .data          0x00000000060010b8        0x0 /home/junghyun/topst/cr5-bsp/sources/build/tcc805x/gcc/tcc805x-freertos-debug/obj/ictc_test.o
 .data          0x00000000060010b8        0x0 /home/junghyun/topst/cr5-bsp/sources/build/tcc805x/gcc/tcc805x-freertos-debug/obj/lin_test.o
 .data          0x00000000060010b8        0x0 /home/junghyun/topst/cr5-bsp/sources/build/tcc805x/gcc/tcc805x-freertos-debug/obj/pdm_test.o
 .data          0x00000000060010b8      0x3d4 /home/junghyun/topst/cr5-bsp/sources/build/tcc805x/gcc/tcc805x-freertos-debug/obj/pmio_test.o
 .data          0x000000000600148c        0x0 /home/junghyun/topst/cr5-bsp/sources/build/tcc805x/gcc/tcc805x-freertos-debug/obj/timer_test.o
 .data          0x000000000600148c       0x20 /home/junghyun/topst/cr5-bsp/sources/build/tcc805x/gcc/tcc805x-freertos-debug/obj/wdt_test.o
 .data          0x00000000060014ac        0x0 /home/junghyun/topst/cr5-bsp/sources/build/tcc805x/gcc/tcc805x-freertos-debug/obj/mptool.o
 .data          0x00000000060014ac        0x0 /home/junghyun/topst/cr5-bsp/sources/build/tcc805x/gcc/tcc805x-freertos-debug/obj/ipc_os.o
 .data          0x00000000060014ac        0x0 /home/junghyun/topst/cr5-bsp/sources/build/tcc805x/gcc/tcc805x-freertos-debug/obj/ipc_buffer.o
 .data          0x00000000060014ac        0x0 /home/junghyun/topst/cr5-bsp/sources/build/tcc805x/gcc/tcc805x-freertos-debug/obj/ipc_cmd.o
 .data          0x00000000060014ac        0x0 /home/junghyun/topst/cr5-bsp/sources/build/tcc805x/gcc/tcc805x-freertos-debug/obj/ipc_ctl.o
 .data          0x00000000060014ac       0x20 /home/junghyun/topst/cr5-bsp/sources/build/tcc805x/gcc/tcc805x-freertos-debug/obj/ipc_parser.o
 .data          0x00000000060014cc        0x0 /home/junghyun/topst/cr5-bsp/sources/build/tcc805x/gcc/tcc805x-freertos-debug/obj/ipc_api.o
 .data          0x00000000060014cc        0x0 /home/junghyun/topst/cr5-bsp/sources/build/tcc805x/gcc/tcc805x-freertos-debug/obj/ipc.o
 .data          0x00000000060014cc        0x0 /home/junghyun/topst/cr5-bsp/sources/build/tcc805x/gcc/tcc805x-freertos-debug/obj/lin.o
 .data          0x00000000060014cc        0x0 /home/junghyun/topst/cr5-bsp/sources/build/tcc805x/gcc/tcc805x-freertos-debug/obj/sdm.o
 .data          0x00000000060014cc        0x0 /home/junghyun/topst/cr5-bsp/sources/build/tcc805x/gcc/tcc805x-freertos-debug/obj/hsm_manager.o
 .data          0x00000000060014cc        0x0 /home/junghyun/topst/cr5-bsp/sources/build/tcc805x/gcc/tcc805x-freertos-debug/obj/adc.o
 .data          0x00000000060014cc        0x0 /home/junghyun/topst/cr5-bsp/sources/build/tcc805x/gcc/tcc805x-freertos-debug/obj/can.o
 .data          0x00000000060014cc        0x0 /home/junghyun/topst/cr5-bsp/sources/build/tcc805x/gcc/tcc805x-freertos-debug/obj/can_drv.o
 .data          0x00000000060014cc        0x0 /home/junghyun/topst/cr5-bsp/sources/build/tcc805x/gcc/tcc805x-freertos-debug/obj/can_msg.o
 .data          0x00000000060014cc      0x234 /home/junghyun/topst/cr5-bsp/sources/build/tcc805x/gcc/tcc805x-freertos-debug/obj/can_par.o
                0x000000000600167c                ArbitrationPhaseTimingPar
                0x0000000006001694                DataPhaseTimingPar
                0x00000000060016ac                TxBufferInfoPar
                0x00000000060016c4                RxBufferInfoPar
                0x00000000060016d0                RxBufferFIFO0InfoPar
                0x00000000060016dc                RxBufferFIFO1InfoPar
                0x00000000060016e8                StandardIDFilterPar
                0x00000000060016f4                ExtendedIDFilterPar
 .data          0x0000000006001700        0x0 /home/junghyun/topst/cr5-bsp/sources/build/tcc805x/gcc/tcc805x-freertos-debug/obj/can_porting.o
 .data          0x0000000006001700        0x0 /home/junghyun/topst/cr5-bsp/sources/build/tcc805x/gcc/tcc805x-freertos-debug/obj/clock_dev.o
 .data          0x0000000006001700       0xa0 /home/junghyun/topst/cr5-bsp/sources/build/tcc805x/gcc/tcc805x-freertos-debug/obj/debug.o
                0x0000000006001700                gDebugOption
                0x0000000006001704                dbgTags
 .data          0x00000000060017a0        0x0 /home/junghyun/topst/cr5-bsp/sources/build/tcc805x/gcc/tcc805x-freertos-debug/obj/bsp.o
 .data          0x00000000060017a0        0x0 /home/junghyun/topst/cr5-bsp/sources/build/tcc805x/gcc/tcc805x-freertos-debug/obj/fmu.o
 .data          0x00000000060017a0        0x0 /home/junghyun/topst/cr5-bsp/sources/build/tcc805x/gcc/tcc805x-freertos-debug/obj/gdma.o
 .data          0x00000000060017a0        0x0 /home/junghyun/topst/cr5-bsp/sources/build/tcc805x/gcc/tcc805x-freertos-debug/obj/gic.o
 .data          0x00000000060017a0        0x0 /home/junghyun/topst/cr5-bsp/sources/build/tcc805x/gcc/tcc805x-freertos-debug/obj/gpio.o
 .data          0x00000000060017a0        0x0 /home/junghyun/topst/cr5-bsp/sources/build/tcc805x/gcc/tcc805x-freertos-debug/obj/i2c.o
 .data          0x00000000060017a0       0xe4 /home/junghyun/topst/cr5-bsp/sources/build/tcc805x/gcc/tcc805x-freertos-debug/obj/i2c_reg.o
                0x00000000060017a0                i2c
 .data          0x0000000006001884        0x0 /home/junghyun/topst/cr5-bsp/sources/build/tcc805x/gcc/tcc805x-freertos-debug/obj/ictc.o
 .data          0x0000000006001884      0xc08 /home/junghyun/topst/cr5-bsp/sources/build/tcc805x/gcc/tcc805x-freertos-debug/obj/mbox_phy.o
                0x0000000006001884                mboxInfo
 .data          0x000000000600248c      0x428 /home/junghyun/topst/cr5-bsp/sources/build/tcc805x/gcc/tcc805x-freertos-debug/obj/mbox_dev.o
 .data          0x00000000060028b4        0x0 /home/junghyun/topst/cr5-bsp/sources/build/tcc805x/gcc/tcc805x-freertos-debug/obj/mbox.o
 .data          0x00000000060028b4        0x0 /home/junghyun/topst/cr5-bsp/sources/build/tcc805x/gcc/tcc805x-freertos-debug/obj/mpu.o
 .data          0x00000000060028b4        0x0 /home/junghyun/topst/cr5-bsp/sources/build/tcc805x/gcc/tcc805x-freertos-debug/obj/pdm.o
 .data          0x00000000060028b4       0x20 /home/junghyun/topst/cr5-bsp/sources/build/tcc805x/gcc/tcc805x-freertos-debug/obj/pmio_dev.o
 .data          0x00000000060028d4        0x0 /home/junghyun/topst/cr5-bsp/sources/build/tcc805x/gcc/tcc805x-freertos-debug/obj/gpsb.o
 .data          0x00000000060028d4      0x228 /home/junghyun/topst/cr5-bsp/sources/build/tcc805x/gcc/tcc805x-freertos-debug/obj/gpsb_reg.o
                0x00000000060028d4                gpsb
 .data          0x0000000006002afc        0x0 /home/junghyun/topst/cr5-bsp/sources/build/tcc805x/gcc/tcc805x-freertos-debug/obj/timer.o
 .data          0x0000000006002afc       0x30 /home/junghyun/topst/cr5-bsp/sources/build/tcc805x/gcc/tcc805x-freertos-debug/obj/uart.o
 .data          0x0000000006002b2c       0x48 /home/junghyun/topst/cr5-bsp/sources/build/tcc805x/gcc/tcc805x-freertos-debug/obj/udma.o
 .data          0x0000000006002b74        0x0 /home/junghyun/topst/cr5-bsp/sources/build/tcc805x/gcc/tcc805x-freertos-debug/obj/wdt.o
 .data          0x0000000006002b74        0x0 /home/junghyun/topst/cr5-bsp/sources/build/tcc805x/gcc/tcc805x-freertos-debug/obj/dse.o
 .data          0x0000000006002b74        0x0 /home/junghyun/topst/cr5-bsp/sources/build/tcc805x/gcc/tcc805x-freertos-debug/obj/midf.o
 .data          0x0000000006002b74        0x0 /home/junghyun/topst/cr5-bsp/sources/build/tcc805x/gcc/tcc805x-freertos-debug/obj/pmu_reset.o
 .data          0x0000000006002b74        0x0 /home/junghyun/topst/cr5-bsp/sources/build/tcc805x/gcc/tcc805x-freertos-debug/obj/tasks.o
 .data          0x0000000006002b74        0x0 /home/junghyun/topst/cr5-bsp/sources/build/tcc805x/gcc/tcc805x-freertos-debug/obj/list.o
 .data          0x0000000006002b74        0x0 /home/junghyun/topst/cr5-bsp/sources/build/tcc805x/gcc/tcc805x-freertos-debug/obj/queue.o
 .data          0x0000000006002b74        0x0 /home/junghyun/topst/cr5-bsp/sources/build/tcc805x/gcc/tcc805x-freertos-debug/obj/event_groups.o
 .data          0x0000000006002b74        0x0 /home/junghyun/topst/cr5-bsp/sources/build/tcc805x/gcc/tcc805x-freertos-debug/obj/timers.o
 .data          0x0000000006002b74        0x0 /home/junghyun/topst/cr5-bsp/sources/build/tcc805x/gcc/tcc805x-freertos-debug/obj/stream_buffer.o
 .data          0x0000000006002b74        0x4 /home/junghyun/topst/cr5-bsp/sources/build/tcc805x/gcc/tcc805x-freertos-debug/obj/port.o
                0x0000000006002b74                ulCriticalNesting
 .data          0x0000000006002b78        0x0 /home/junghyun/topst/cr5-bsp/sources/build/tcc805x/gcc/tcc805x-freertos-debug/obj/heap_5.o
 .data          0x0000000006002b78        0x0 /home/junghyun/topst/cr5-bsp/sources/build/tcc805x/gcc/tcc805x-freertos-debug/obj/sal_api.o
 .data          0x0000000006002b78        0x0 /home/junghyun/topst/cr5-bsp/sources/build/tcc805x/gcc/tcc805x-freertos-debug/obj/sal_freertos_impl.o
 .data          0x0000000006002b78        0x0 /home/junghyun/topst/cr5-bsp/sources/build/tcc805x/gcc/tcc805x-freertos-debug/obj/project_ipc.o
 .data          0x0000000006002b78        0x0 /home/junghyun/topst/cr5-bsp/sources/build/tcc805x/gcc/tcc805x-freertos-debug/obj/project_i2c.o
 .data          0x0000000006002b78        0x0 /home/junghyun/topst/cr5-bsp/sources/build/tcc805x/gcc/tcc805x-freertos-debug/obj/startup.o
 .data          0x0000000006002b78        0x0 /home/junghyun/topst/cr5-bsp/sources/build/tcc805x/gcc/tcc805x-freertos-debug/obj/vector.o
 .data          0x0000000006002b78        0x0 /home/junghyun/topst/cr5-bsp/sources/build/tcc805x/gcc/tcc805x-freertos-debug/obj/vfp_init.o
 .data          0x0000000006002b78        0x0 /home/junghyun/topst/cr5-bsp/sources/build/tcc805x/gcc/tcc805x-freertos-debug/obj/arm_a.o
 .data          0x0000000006002b78        0x0 /home/junghyun/topst/cr5-bsp/sources/build/tcc805x/gcc/tcc805x-freertos-debug/obj/portASM.o
 .data          0x0000000006002b78        0x0 /home/junghyun/topst/cr5-bsp/sources/build/tcc805x/gcc/tcc805x-freertos-debug/obj/freertos.o
 .data          0x0000000006002b78        0x0 /home/junghyun/topst/cr5-bsp/sources/build/tcc805x/gcc/tcc805x-freertos-debug/obj/sal.o
 .data          0x0000000006002b78        0x0 /home/junghyun/topst/buildtools/gcc-linaro-7.2.1-2017.11-x86_64_arm-eabi/arm-eabi/libc/usr/lib/libc.a(lib_a-atoi.o)
 .data          0x0000000006002b78        0x0 /home/junghyun/topst/buildtools/gcc-linaro-7.2.1-2017.11-x86_64_arm-eabi/arm-eabi/libc/usr/lib/libc.a(lib_a-atol.o)
 .data          0x0000000006002b78        0x0 /home/junghyun/topst/buildtools/gcc-linaro-7.2.1-2017.11-x86_64_arm-eabi/arm-eabi/libc/usr/lib/libc.a(lib_a-memcmp.o)
 .data          0x0000000006002b78        0x0 /home/junghyun/topst/buildtools/gcc-linaro-7.2.1-2017.11-x86_64_arm-eabi/arm-eabi/libc/usr/lib/libc.a(lib_a-memcpy-stub.o)
 .data          0x0000000006002b78        0x0 /home/junghyun/topst/buildtools/gcc-linaro-7.2.1-2017.11-x86_64_arm-eabi/arm-eabi/libc/usr/lib/libc.a(lib_a-memset.o)
 .data          0x0000000006002b78        0x0 /home/junghyun/topst/buildtools/gcc-linaro-7.2.1-2017.11-x86_64_arm-eabi/arm-eabi/libc/usr/lib/libc.a(lib_a-strlen-stub.o)
 .data          0x0000000006002b78        0x0 /home/junghyun/topst/buildtools/gcc-linaro-7.2.1-2017.11-x86_64_arm-eabi/arm-eabi/libc/usr/lib/libc.a(lib_a-strncmp.o)
 .data          0x0000000006002b78        0x0 /home/junghyun/topst/buildtools/gcc-linaro-7.2.1-2017.11-x86_64_arm-eabi/arm-eabi/libc/usr/lib/libc.a(lib_a-strncpy.o)
 .data          0x0000000006002b78        0x0 /home/junghyun/topst/buildtools/gcc-linaro-7.2.1-2017.11-x86_64_arm-eabi/arm-eabi/libc/usr/lib/libc.a(lib_a-strnlen.o)
 .data          0x0000000006002b78        0x0 /home/junghyun/topst/buildtools/gcc-linaro-7.2.1-2017.11-x86_64_arm-eabi/arm-eabi/libc/usr/lib/libc.a(lib_a-strtol.o)
 .data          0x0000000006002b78        0x0 /home/junghyun/topst/buildtools/gcc-linaro-7.2.1-2017.11-x86_64_arm-eabi/arm-eabi/libc/usr/lib/libc.a(lib_a-strtoul.o)
 .data          0x0000000006002b78      0x430 /home/junghyun/topst/buildtools/gcc-linaro-7.2.1-2017.11-x86_64_arm-eabi/arm-eabi/libc/usr/lib/libc.a(lib_a-impure.o)
                0x0000000006002b78                _impure_ptr
 .data          0x0000000006002fa8      0x18c /home/junghyun/topst/buildtools/gcc-linaro-7.2.1-2017.11-x86_64_arm-eabi/arm-eabi/libc/usr/lib/libc.a(lib_a-locale.o)
                0x0000000006002fa8                __global_locale
                0x0000000006003114                __default_locale
 .data          0x0000000006003134        0x0 /home/junghyun/topst/buildtools/gcc-linaro-7.2.1-2017.11-x86_64_arm-eabi/arm-eabi/libc/usr/lib/libc.a(lib_a-mbtowc_r.o)
 .data          0x0000000006003134        0x0 /home/junghyun/topst/buildtools/gcc-linaro-7.2.1-2017.11-x86_64_arm-eabi/arm-eabi/libc/usr/lib/libc.a(lib_a-strcasecmp.o)
 .data          0x0000000006003134        0x0 /home/junghyun/topst/buildtools/gcc-linaro-7.2.1-2017.11-x86_64_arm-eabi/arm-eabi/libc/usr/lib/libc.a(lib_a-strcat.o)
 .data          0x0000000006003134        0x0 /home/junghyun/topst/buildtools/gcc-linaro-7.2.1-2017.11-x86_64_arm-eabi/arm-eabi/libc/usr/lib/libc.a(lib_a-strchr.o)
 .data          0x0000000006003134        0x0 /home/junghyun/topst/buildtools/gcc-linaro-7.2.1-2017.11-x86_64_arm-eabi/arm-eabi/libc/usr/lib/libc.a(lib_a-strcmp.o)
 .data          0x0000000006003134        0x0 /home/junghyun/topst/buildtools/gcc-linaro-7.2.1-2017.11-x86_64_arm-eabi/arm-eabi/libc/usr/lib/libc.a(lib_a-strcpy.o)
 .data          0x0000000006003134        0x0 /home/junghyun/topst/buildtools/gcc-linaro-7.2.1-2017.11-x86_64_arm-eabi/arm-eabi/libc/usr/lib/libc.a(lib_a-strlcpy.o)
 .data          0x0000000006003134        0x0 /home/junghyun/topst/buildtools/gcc-linaro-7.2.1-2017.11-x86_64_arm-eabi/arm-eabi/libc/usr/lib/libc.a(lib_a-strncasecmp.o)
 .data          0x0000000006003134        0x0 /home/junghyun/topst/buildtools/gcc-linaro-7.2.1-2017.11-x86_64_arm-eabi/arm-eabi/libc/usr/lib/libc.a(lib_a-wctomb_r.o)
 .data          0x0000000006003134        0x0 /home/junghyun/topst/buildtools/gcc-linaro-7.2.1-2017.11-x86_64_arm-eabi/arm-eabi/libc/usr/lib/libc.a(lib_a-ctype_.o)
 .data          0x0000000006003134        0x0 /home/junghyun/topst/buildtools/gcc-linaro-7.2.1-2017.11-x86_64_arm-eabi/arm-eabi/libc/usr/lib/libc.a(lib_a-getenv_r.o)
 .data          0x0000000006003134        0x4 /home/junghyun/topst/buildtools/gcc-linaro-7.2.1-2017.11-x86_64_arm-eabi/arm-eabi/libc/usr/lib/libc.a(lib_a-environ.o)
                0x0000000006003134                environ
 .data          0x0000000006003138        0x0 /home/junghyun/topst/buildtools/gcc-linaro-7.2.1-2017.11-x86_64_arm-eabi/arm-eabi/libc/usr/lib/libc.a(lib_a-envlock.o)
 .data          0x0000000006003138        0x0 /home/junghyun/topst/buildtools/gcc-linaro-7.2.1-2017.11-x86_64_arm-eabi/arm-eabi/libc/usr/lib/libgcc.a(_udivsi3.o)
 .data          0x0000000006003138        0x0 /home/junghyun/topst/buildtools/gcc-linaro-7.2.1-2017.11-x86_64_arm-eabi/arm-eabi/libc/usr/lib/libgcc.a(_dvmd_tls.o)
 .data          0x0000000006003138        0x0 /home/junghyun/topst/buildtools/gcc-linaro-7.2.1-2017.11-x86_64_arm-eabi/arm-eabi/libc/usr/lib/libgcc.a(_aeabi_uldivmod.o)
 .data          0x0000000006003138        0x0 /home/junghyun/topst/buildtools/gcc-linaro-7.2.1-2017.11-x86_64_arm-eabi/arm-eabi/libc/usr/lib/libgcc.a(_udivmoddi4.o)
 .data          0x0000000006003138        0x0 /home/junghyun/topst/buildtools/gcc-linaro-7.2.1-2017.11-x86_64_arm-eabi/arm-eabi/libc/usr/lib/libgcc.a(_clzdi2.o)
 .data          0x0000000006003138        0x0 /home/junghyun/topst/buildtools/gcc-linaro-7.2.1-2017.11-x86_64_arm-eabi/arm-eabi/libc/usr/lib/libgcc.a(_clzsi2.o)
 *(.data.*)
                0x0000000006003140                . = ALIGN (0x20)
 *fill*         0x0000000006003138        0x8 
                0x0000000006003140                __DATA_END__ = .

.bss            0x0000000006003140    0x3eca0 load address 0x000000000826f5e0
                0x0000000006003140                . = ALIGN (0x20)
                0x0000000006003140                __BSS_START__ = .
 *(.bss)
 .bss           0x0000000006003140      0x40c /home/junghyun/topst/cr5-bsp/sources/build/tcc805x/gcc/tcc805x-freertos-debug/obj/main.o
                0x0000000006003140                gALiveMsgOnOff
 .bss           0x000000000600354c     0x201c /home/junghyun/topst/cr5-bsp/sources/build/tcc805x/gcc/tcc805x-freertos-debug/obj/can_demo.o
 .bss           0x0000000006005568      0xad8 /home/junghyun/topst/cr5-bsp/sources/build/tcc805x/gcc/tcc805x-freertos-debug/obj/console.o
 .bss           0x0000000006006040     0x2228 /home/junghyun/topst/cr5-bsp/sources/build/tcc805x/gcc/tcc805x-freertos-debug/obj/fwug.o
 .bss           0x0000000006008268        0xc /home/junghyun/topst/cr5-bsp/sources/build/tcc805x/gcc/tcc805x-freertos-debug/obj/key_adc.o
 .bss           0x0000000006008274       0x1c /home/junghyun/topst/cr5-bsp/sources/build/tcc805x/gcc/tcc805x-freertos-debug/obj/key_gpio.o
 .bss           0x0000000006008290        0x8 /home/junghyun/topst/cr5-bsp/sources/build/tcc805x/gcc/tcc805x-freertos-debug/obj/key_i2c.o
 .bss           0x0000000006008298      0xc24 /home/junghyun/topst/cr5-bsp/sources/build/tcc805x/gcc/tcc805x-freertos-debug/obj/key.o
 .bss           0x0000000006008ebc      0x4a4 /home/junghyun/topst/cr5-bsp/sources/build/tcc805x/gcc/tcc805x-freertos-debug/obj/system_monitoring.o
 .bss           0x0000000006009360      0x84a /home/junghyun/topst/cr5-bsp/sources/build/tcc805x/gcc/tcc805x-freertos-debug/obj/bootctrl.o
 .bss           0x0000000006009baa        0x0 /home/junghyun/topst/cr5-bsp/sources/build/tcc805x/gcc/tcc805x-freertos-debug/obj/reset_demo.o
 .bss           0x0000000006009baa        0x0 /home/junghyun/topst/cr5-bsp/sources/build/tcc805x/gcc/tcc805x-freertos-debug/obj/adc_test.o
 *fill*         0x0000000006009baa        0x2 
 .bss           0x0000000006009bac        0x4 /home/junghyun/topst/cr5-bsp/sources/build/tcc805x/gcc/tcc805x-freertos-debug/obj/dse_test.o
 .bss           0x0000000006009bb0        0x8 /home/junghyun/topst/cr5-bsp/sources/build/tcc805x/gcc/tcc805x-freertos-debug/obj/fmu_test.o
 .bss           0x0000000006009bb8        0x0 /home/junghyun/topst/cr5-bsp/sources/build/tcc805x/gcc/tcc805x-freertos-debug/obj/gdma_test.o
 .bss           0x0000000006009bb8        0x4 /home/junghyun/topst/cr5-bsp/sources/build/tcc805x/gcc/tcc805x-freertos-debug/obj/gic_test.o
 .bss           0x0000000006009bbc        0x4 /home/junghyun/topst/cr5-bsp/sources/build/tcc805x/gcc/tcc805x-freertos-debug/obj/gpio_test.o
 .bss           0x0000000006009bc0       0x20 /home/junghyun/topst/cr5-bsp/sources/build/tcc805x/gcc/tcc805x-freertos-debug/obj/gpsb_test.o
 .bss           0x0000000006009be0        0x0 /home/junghyun/topst/cr5-bsp/sources/build/tcc805x/gcc/tcc805x-freertos-debug/obj/hsm_test.o
 .bss           0x0000000006009be0        0x4 /home/junghyun/topst/cr5-bsp/sources/build/tcc805x/gcc/tcc805x-freertos-debug/obj/i2c_test.o
 .bss           0x0000000006009be4        0x0 /home/junghyun/topst/cr5-bsp/sources/build/tcc805x/gcc/tcc805x-freertos-debug/obj/ictc_test.o
 .bss           0x0000000006009be4        0x0 /home/junghyun/topst/cr5-bsp/sources/build/tcc805x/gcc/tcc805x-freertos-debug/obj/lin_test.o
 .bss           0x0000000006009be4        0x0 /home/junghyun/topst/cr5-bsp/sources/build/tcc805x/gcc/tcc805x-freertos-debug/obj/pdm_test.o
 .bss           0x0000000006009be4        0x0 /home/junghyun/topst/cr5-bsp/sources/build/tcc805x/gcc/tcc805x-freertos-debug/obj/pmio_test.o
 .bss           0x0000000006009be4       0x40 /home/junghyun/topst/cr5-bsp/sources/build/tcc805x/gcc/tcc805x-freertos-debug/obj/timer_test.o
 .bss           0x0000000006009c24        0x8 /home/junghyun/topst/cr5-bsp/sources/build/tcc805x/gcc/tcc805x-freertos-debug/obj/wdt_test.o
 .bss           0x0000000006009c2c     0x2004 /home/junghyun/topst/cr5-bsp/sources/build/tcc805x/gcc/tcc805x-freertos-debug/obj/mptool.o
 .bss           0x000000000600bc30       0xf0 /home/junghyun/topst/cr5-bsp/sources/build/tcc805x/gcc/tcc805x-freertos-debug/obj/ipc_os.o
 .bss           0x000000000600bd20        0x0 /home/junghyun/topst/cr5-bsp/sources/build/tcc805x/gcc/tcc805x-freertos-debug/obj/ipc_buffer.o
 .bss           0x000000000600bd20      0x890 /home/junghyun/topst/cr5-bsp/sources/build/tcc805x/gcc/tcc805x-freertos-debug/obj/ipc_cmd.o
 .bss           0x000000000600c5b0     0x3980 /home/junghyun/topst/cr5-bsp/sources/build/tcc805x/gcc/tcc805x-freertos-debug/obj/ipc_ctl.o
                0x000000000600c5b0                dev
                0x000000000600ce40                gIPCHandler
 .bss           0x000000000600ff30     0x1810 /home/junghyun/topst/cr5-bsp/sources/build/tcc805x/gcc/tcc805x-freertos-debug/obj/ipc_parser.o
 .bss           0x0000000006011740      0x610 /home/junghyun/topst/cr5-bsp/sources/build/tcc805x/gcc/tcc805x-freertos-debug/obj/ipc_api.o
                0x0000000006011770                cbFunc
 .bss           0x0000000006011d50        0x0 /home/junghyun/topst/cr5-bsp/sources/build/tcc805x/gcc/tcc805x-freertos-debug/obj/ipc.o
 .bss           0x0000000006011d50        0x0 /home/junghyun/topst/cr5-bsp/sources/build/tcc805x/gcc/tcc805x-freertos-debug/obj/lin.o
 .bss           0x0000000006011d50        0x1 /home/junghyun/topst/cr5-bsp/sources/build/tcc805x/gcc/tcc805x-freertos-debug/obj/sdm.o
 *fill*         0x0000000006011d51        0x3 
 .bss           0x0000000006011d54        0x4 /home/junghyun/topst/cr5-bsp/sources/build/tcc805x/gcc/tcc805x-freertos-debug/obj/hsm_manager.o
 .bss           0x0000000006011d58        0x0 /home/junghyun/topst/cr5-bsp/sources/build/tcc805x/gcc/tcc805x-freertos-debug/obj/adc.o
 .bss           0x0000000006011d58      0x100 /home/junghyun/topst/cr5-bsp/sources/build/tcc805x/gcc/tcc805x-freertos-debug/obj/can.o
 .bss           0x0000000006011e58        0x0 /home/junghyun/topst/cr5-bsp/sources/build/tcc805x/gcc/tcc805x-freertos-debug/obj/can_drv.o
 .bss           0x0000000006011e58     0xbd30 /home/junghyun/topst/cr5-bsp/sources/build/tcc805x/gcc/tcc805x-freertos-debug/obj/can_msg.o
 .bss           0x000000000601db88        0xc /home/junghyun/topst/cr5-bsp/sources/build/tcc805x/gcc/tcc805x-freertos-debug/obj/can_par.o
                0x000000000601db88                CANCallbackFunctions
 .bss           0x000000000601db94        0x0 /home/junghyun/topst/cr5-bsp/sources/build/tcc805x/gcc/tcc805x-freertos-debug/obj/can_porting.o
 .bss           0x000000000601db94       0x1c /home/junghyun/topst/cr5-bsp/sources/build/tcc805x/gcc/tcc805x-freertos-debug/obj/clock_dev.o
 .bss           0x000000000601dbb0        0x0 /home/junghyun/topst/cr5-bsp/sources/build/tcc805x/gcc/tcc805x-freertos-debug/obj/debug.o
 .bss           0x000000000601dbb0        0x0 /home/junghyun/topst/cr5-bsp/sources/build/tcc805x/gcc/tcc805x-freertos-debug/obj/bsp.o
 .bss           0x000000000601dbb0      0x300 /home/junghyun/topst/cr5-bsp/sources/build/tcc805x/gcc/tcc805x-freertos-debug/obj/fmu.o
 .bss           0x000000000601deb0        0x8 /home/junghyun/topst/cr5-bsp/sources/build/tcc805x/gcc/tcc805x-freertos-debug/obj/gdma.o
 .bss           0x000000000601deb8     0x1800 /home/junghyun/topst/cr5-bsp/sources/build/tcc805x/gcc/tcc805x-freertos-debug/obj/gic.o
 .bss           0x000000000601f6b8        0x0 /home/junghyun/topst/cr5-bsp/sources/build/tcc805x/gcc/tcc805x-freertos-debug/obj/gpio.o
 .bss           0x000000000601f6b8        0x0 /home/junghyun/topst/cr5-bsp/sources/build/tcc805x/gcc/tcc805x-freertos-debug/obj/i2c.o
 .bss           0x000000000601f6b8        0x0 /home/junghyun/topst/cr5-bsp/sources/build/tcc805x/gcc/tcc805x-freertos-debug/obj/i2c_reg.o
 .bss           0x000000000601f6b8      0x198 /home/junghyun/topst/cr5-bsp/sources/build/tcc805x/gcc/tcc805x-freertos-debug/obj/ictc.o
 .bss           0x000000000601f850    0x1b32c /home/junghyun/topst/cr5-bsp/sources/build/tcc805x/gcc/tcc805x-freertos-debug/obj/mbox_phy.o
 .bss           0x000000000603ab7c      0x334 /home/junghyun/topst/cr5-bsp/sources/build/tcc805x/gcc/tcc805x-freertos-debug/obj/mbox_dev.o
                0x000000000603ab7c                spMboxDev
 .bss           0x000000000603aeb0       0x28 /home/junghyun/topst/cr5-bsp/sources/build/tcc805x/gcc/tcc805x-freertos-debug/obj/mbox.o
 .bss           0x000000000603aed8        0x0 /home/junghyun/topst/cr5-bsp/sources/build/tcc805x/gcc/tcc805x-freertos-debug/obj/mpu.o
 .bss           0x000000000603aed8      0x5d1 /home/junghyun/topst/cr5-bsp/sources/build/tcc805x/gcc/tcc805x-freertos-debug/obj/pdm.o
 *fill*         0x000000000603b4a9        0x3 
 .bss           0x000000000603b4ac      0x460 /home/junghyun/topst/cr5-bsp/sources/build/tcc805x/gcc/tcc805x-freertos-debug/obj/pmio_dev.o
 .bss           0x000000000603b90c       0x44 /home/junghyun/topst/cr5-bsp/sources/build/tcc805x/gcc/tcc805x-freertos-debug/obj/gpsb.o
 .bss           0x000000000603b950        0x0 /home/junghyun/topst/cr5-bsp/sources/build/tcc805x/gcc/tcc805x-freertos-debug/obj/gpsb_reg.o
 .bss           0x000000000603b950       0x4c /home/junghyun/topst/cr5-bsp/sources/build/tcc805x/gcc/tcc805x-freertos-debug/obj/timer.o
 .bss           0x000000000603b99c      0xf08 /home/junghyun/topst/cr5-bsp/sources/build/tcc805x/gcc/tcc805x-freertos-debug/obj/uart.o
 .bss           0x000000000603c8a4        0x0 /home/junghyun/topst/cr5-bsp/sources/build/tcc805x/gcc/tcc805x-freertos-debug/obj/udma.o
 .bss           0x000000000603c8a4        0x1 /home/junghyun/topst/cr5-bsp/sources/build/tcc805x/gcc/tcc805x-freertos-debug/obj/wdt.o
 *fill*         0x000000000603c8a5        0x3 
 .bss           0x000000000603c8a8        0x8 /home/junghyun/topst/cr5-bsp/sources/build/tcc805x/gcc/tcc805x-freertos-debug/obj/dse.o
                0x000000000603c8a8                gWait_irq
 .bss           0x000000000603c8b0        0x1 /home/junghyun/topst/cr5-bsp/sources/build/tcc805x/gcc/tcc805x-freertos-debug/obj/midf.o
 *fill*         0x000000000603c8b1        0x3 
 .bss           0x000000000603c8b4     0x1008 /home/junghyun/topst/cr5-bsp/sources/build/tcc805x/gcc/tcc805x-freertos-debug/obj/pmu_reset.o
 .bss           0x000000000603d8bc      0x1e0 /home/junghyun/topst/cr5-bsp/sources/build/tcc805x/gcc/tcc805x-freertos-debug/obj/tasks.o
                0x000000000603d8bc                pxCurrentTCB
 .bss           0x000000000603da9c        0x0 /home/junghyun/topst/cr5-bsp/sources/build/tcc805x/gcc/tcc805x-freertos-debug/obj/list.o
 .bss           0x000000000603da9c       0x40 /home/junghyun/topst/cr5-bsp/sources/build/tcc805x/gcc/tcc805x-freertos-debug/obj/queue.o
                0x000000000603da9c                xQueueRegistry
 .bss           0x000000000603dadc        0x0 /home/junghyun/topst/cr5-bsp/sources/build/tcc805x/gcc/tcc805x-freertos-debug/obj/event_groups.o
 .bss           0x000000000603dadc       0xd8 /home/junghyun/topst/cr5-bsp/sources/build/tcc805x/gcc/tcc805x-freertos-debug/obj/timers.o
 .bss           0x000000000603dbb4        0x0 /home/junghyun/topst/cr5-bsp/sources/build/tcc805x/gcc/tcc805x-freertos-debug/obj/stream_buffer.o
 .bss           0x000000000603dbb4     0x108c /home/junghyun/topst/cr5-bsp/sources/build/tcc805x/gcc/tcc805x-freertos-debug/obj/port.o
                0x000000000603dbb4                ulPortTaskHasFPUContext
                0x000000000603dbb8                ulPortYieldRequired
                0x000000000603dbbc                ulPortInterruptNesting
                0x000000000603dbc0                ucHeap
 .bss           0x000000000603ec40       0x20 /home/junghyun/topst/cr5-bsp/sources/build/tcc805x/gcc/tcc805x-freertos-debug/obj/heap_5.o
 .bss           0x000000000603ec60      0x144 /home/junghyun/topst/cr5-bsp/sources/build/tcc805x/gcc/tcc805x-freertos-debug/obj/sal_api.o
                0x000000000603ec60                gSALCoreTable
                0x000000000603ec64                gSALOSRunTable
                0x000000000603ec68                gSALMemoryTable
                0x000000000603ec6c                gSALFileTable
                0x000000000603ec70                gSALDataStructTable
                0x000000000603ec74                gSALSyncObjectTable
                0x000000000603ec78                gSALTaskTable
                0x000000000603ec7c                gSALSocketTable
                0x000000000603ec80                gSALTraceTable
                0x000000000603ec84                gSALEtcTable
 .bss           0x000000000603eda4     0x255c /home/junghyun/topst/cr5-bsp/sources/build/tcc805x/gcc/tcc805x-freertos-debug/obj/sal_freertos_impl.o
 .bss           0x0000000006041300        0x0 /home/junghyun/topst/cr5-bsp/sources/build/tcc805x/gcc/tcc805x-freertos-debug/obj/project_ipc.o
 .bss           0x0000000006041300      0x804 /home/junghyun/topst/cr5-bsp/sources/build/tcc805x/gcc/tcc805x-freertos-debug/obj/project_i2c.o
 .bss           0x0000000006041b04       0x20 /home/junghyun/topst/cr5-bsp/sources/build/tcc805x/gcc/tcc805x-freertos-debug/obj/startup.o
 .bss           0x0000000006041b24        0x0 /home/junghyun/topst/cr5-bsp/sources/build/tcc805x/gcc/tcc805x-freertos-debug/obj/vector.o
 .bss           0x0000000006041b24        0x0 /home/junghyun/topst/cr5-bsp/sources/build/tcc805x/gcc/tcc805x-freertos-debug/obj/vfp_init.o
 .bss           0x0000000006041b24        0x0 /home/junghyun/topst/cr5-bsp/sources/build/tcc805x/gcc/tcc805x-freertos-debug/obj/arm_a.o
 .bss           0x0000000006041b24        0x0 /home/junghyun/topst/cr5-bsp/sources/build/tcc805x/gcc/tcc805x-freertos-debug/obj/portASM.o
 .bss           0x0000000006041b24        0x0 /home/junghyun/topst/cr5-bsp/sources/build/tcc805x/gcc/tcc805x-freertos-debug/obj/freertos.o
 .bss           0x0000000006041b24        0x0 /home/junghyun/topst/cr5-bsp/sources/build/tcc805x/gcc/tcc805x-freertos-debug/obj/sal.o
 .bss           0x0000000006041b24        0x0 /home/junghyun/topst/buildtools/gcc-linaro-7.2.1-2017.11-x86_64_arm-eabi/arm-eabi/libc/usr/lib/libc.a(lib_a-atoi.o)
 .bss           0x0000000006041b24        0x0 /home/junghyun/topst/buildtools/gcc-linaro-7.2.1-2017.11-x86_64_arm-eabi/arm-eabi/libc/usr/lib/libc.a(lib_a-atol.o)
 .bss           0x0000000006041b24        0x0 /home/junghyun/topst/buildtools/gcc-linaro-7.2.1-2017.11-x86_64_arm-eabi/arm-eabi/libc/usr/lib/libc.a(lib_a-memcmp.o)
 .bss           0x0000000006041b24        0x0 /home/junghyun/topst/buildtools/gcc-linaro-7.2.1-2017.11-x86_64_arm-eabi/arm-eabi/libc/usr/lib/libc.a(lib_a-memcpy-stub.o)
 .bss           0x0000000006041b24        0x0 /home/junghyun/topst/buildtools/gcc-linaro-7.2.1-2017.11-x86_64_arm-eabi/arm-eabi/libc/usr/lib/libc.a(lib_a-memset.o)
 .bss           0x0000000006041b24        0x0 /home/junghyun/topst/buildtools/gcc-linaro-7.2.1-2017.11-x86_64_arm-eabi/arm-eabi/libc/usr/lib/libc.a(lib_a-strlen-stub.o)
 .bss           0x0000000006041b24        0x0 /home/junghyun/topst/buildtools/gcc-linaro-7.2.1-2017.11-x86_64_arm-eabi/arm-eabi/libc/usr/lib/libc.a(lib_a-strncmp.o)
 .bss           0x0000000006041b24        0x0 /home/junghyun/topst/buildtools/gcc-linaro-7.2.1-2017.11-x86_64_arm-eabi/arm-eabi/libc/usr/lib/libc.a(lib_a-strncpy.o)
 .bss           0x0000000006041b24        0x0 /home/junghyun/topst/buildtools/gcc-linaro-7.2.1-2017.11-x86_64_arm-eabi/arm-eabi/libc/usr/lib/libc.a(lib_a-strnlen.o)
 .bss           0x0000000006041b24        0x0 /home/junghyun/topst/buildtools/gcc-linaro-7.2.1-2017.11-x86_64_arm-eabi/arm-eabi/libc/usr/lib/libc.a(lib_a-strtol.o)
 .bss           0x0000000006041b24        0x0 /home/junghyun/topst/buildtools/gcc-linaro-7.2.1-2017.11-x86_64_arm-eabi/arm-eabi/libc/usr/lib/libc.a(lib_a-strtoul.o)
 .bss           0x0000000006041b24        0x0 /home/junghyun/topst/buildtools/gcc-linaro-7.2.1-2017.11-x86_64_arm-eabi/arm-eabi/libc/usr/lib/libc.a(lib_a-impure.o)
 .bss           0x0000000006041b24      0x2ac /home/junghyun/topst/buildtools/gcc-linaro-7.2.1-2017.11-x86_64_arm-eabi/arm-eabi/libc/usr/lib/libc.a(lib_a-locale.o)
                0x0000000006041dcc                _PathLocale
 .bss           0x0000000006041dd0        0x0 /home/junghyun/topst/buildtools/gcc-linaro-7.2.1-2017.11-x86_64_arm-eabi/arm-eabi/libc/usr/lib/libc.a(lib_a-mbtowc_r.o)
 .bss           0x0000000006041dd0        0x0 /home/junghyun/topst/buildtools/gcc-linaro-7.2.1-2017.11-x86_64_arm-eabi/arm-eabi/libc/usr/lib/libc.a(lib_a-strcasecmp.o)
 .bss           0x0000000006041dd0        0x0 /home/junghyun/topst/buildtools/gcc-linaro-7.2.1-2017.11-x86_64_arm-eabi/arm-eabi/libc/usr/lib/libc.a(lib_a-strcat.o)
 .bss           0x0000000006041dd0        0x0 /home/junghyun/topst/buildtools/gcc-linaro-7.2.1-2017.11-x86_64_arm-eabi/arm-eabi/libc/usr/lib/libc.a(lib_a-strchr.o)
 .bss           0x0000000006041dd0        0x0 /home/junghyun/topst/buildtools/gcc-linaro-7.2.1-2017.11-x86_64_arm-eabi/arm-eabi/libc/usr/lib/libc.a(lib_a-strcmp.o)
 .bss           0x0000000006041dd0        0x0 /home/junghyun/topst/buildtools/gcc-linaro-7.2.1-2017.11-x86_64_arm-eabi/arm-eabi/libc/usr/lib/libc.a(lib_a-strcpy.o)
 .bss           0x0000000006041dd0        0x0 /home/junghyun/topst/buildtools/gcc-linaro-7.2.1-2017.11-x86_64_arm-eabi/arm-eabi/libc/usr/lib/libc.a(lib_a-strlcpy.o)
 .bss           0x0000000006041dd0        0x0 /home/junghyun/topst/buildtools/gcc-linaro-7.2.1-2017.11-x86_64_arm-eabi/arm-eabi/libc/usr/lib/libc.a(lib_a-strncasecmp.o)
 .bss           0x0000000006041dd0        0x0 /home/junghyun/topst/buildtools/gcc-linaro-7.2.1-2017.11-x86_64_arm-eabi/arm-eabi/libc/usr/lib/libc.a(lib_a-wctomb_r.o)
 .bss           0x0000000006041dd0        0x0 /home/junghyun/topst/buildtools/gcc-linaro-7.2.1-2017.11-x86_64_arm-eabi/arm-eabi/libc/usr/lib/libc.a(lib_a-ctype_.o)
 .bss           0x0000000006041dd0        0x0 /home/junghyun/topst/buildtools/gcc-linaro-7.2.1-2017.11-x86_64_arm-eabi/arm-eabi/libc/usr/lib/libc.a(lib_a-getenv_r.o)
 .bss           0x0000000006041dd0        0x4 /home/junghyun/topst/buildtools/gcc-linaro-7.2.1-2017.11-x86_64_arm-eabi/arm-eabi/libc/usr/lib/libc.a(lib_a-environ.o)
 .bss           0x0000000006041dd4        0x0 /home/junghyun/topst/buildtools/gcc-linaro-7.2.1-2017.11-x86_64_arm-eabi/arm-eabi/libc/usr/lib/libc.a(lib_a-envlock.o)
 .bss           0x0000000006041dd4        0x0 /home/junghyun/topst/buildtools/gcc-linaro-7.2.1-2017.11-x86_64_arm-eabi/arm-eabi/libc/usr/lib/libgcc.a(_udivsi3.o)
 .bss           0x0000000006041dd4        0x0 /home/junghyun/topst/buildtools/gcc-linaro-7.2.1-2017.11-x86_64_arm-eabi/arm-eabi/libc/usr/lib/libgcc.a(_dvmd_tls.o)
 .bss           0x0000000006041dd4        0x0 /home/junghyun/topst/buildtools/gcc-linaro-7.2.1-2017.11-x86_64_arm-eabi/arm-eabi/libc/usr/lib/libgcc.a(_aeabi_uldivmod.o)
 .bss           0x0000000006041dd4        0x0 /home/junghyun/topst/buildtools/gcc-linaro-7.2.1-2017.11-x86_64_arm-eabi/arm-eabi/libc/usr/lib/libgcc.a(_udivmoddi4.o)
 .bss           0x0000000006041dd4        0x0 /home/junghyun/topst/buildtools/gcc-linaro-7.2.1-2017.11-x86_64_arm-eabi/arm-eabi/libc/usr/lib/libgcc.a(_clzdi2.o)
 .bss           0x0000000006041dd4        0x0 /home/junghyun/topst/buildtools/gcc-linaro-7.2.1-2017.11-x86_64_arm-eabi/arm-eabi/libc/usr/lib/libgcc.a(_clzsi2.o)
 *(.bss.*)
                0x0000000006041de0                . = ALIGN (0x20)
 *fill*         0x0000000006041dd4        0xc 
                0x0000000006041de0                __BSS_END__ = .

.arm_stack      0x000000000607b980      0x680
                0x000000000607b980                __stack_start = .
                0x000000000607c000                . = (. + 0x680)
 *fill*         0x000000000607b980      0x680 
                0x000000000607c000                _stack_end = .

.nc_dma         0x00000000c007c000     0x4000 load address 0x0000000006041de0
                0x00000000c007c000                __nc_dmastart = .
                0x00000000c0080000                . = (. + DMA_NC_SIZE)
 *fill*         0x00000000c007c000     0x4000 
                0x00000000c0080000                _end_of_nc_dma = .
                0x00000000c0080000                _end = .
                0x00000000c0080000                __end = _end
                [!provide]                        PROVIDE (end, .)

/DISCARD/
 *(.ARM.exidx* .ARM.extab* .glue* .vfp11_veneer .v4_bx .iplt .igot.* .rel.*)
LOAD /home/junghyun/topst/cr5-bsp/sources/build/tcc805x/gcc/tcc805x-freertos-debug/obj/main.o
LOAD /home/junghyun/topst/cr5-bsp/sources/build/tcc805x/gcc/tcc805x-freertos-debug/obj/can_demo.o
LOAD /home/junghyun/topst/cr5-bsp/sources/build/tcc805x/gcc/tcc805x-freertos-debug/obj/console.o
LOAD /home/junghyun/topst/cr5-bsp/sources/build/tcc805x/gcc/tcc805x-freertos-debug/obj/fwug.o
LOAD /home/junghyun/topst/cr5-bsp/sources/build/tcc805x/gcc/tcc805x-freertos-debug/obj/key_adc.o
LOAD /home/junghyun/topst/cr5-bsp/sources/build/tcc805x/gcc/tcc805x-freertos-debug/obj/key_gpio.o
LOAD /home/junghyun/topst/cr5-bsp/sources/build/tcc805x/gcc/tcc805x-freertos-debug/obj/key_i2c.o
LOAD /home/junghyun/topst/cr5-bsp/sources/build/tcc805x/gcc/tcc805x-freertos-debug/obj/key.o
LOAD /home/junghyun/topst/cr5-bsp/sources/build/tcc805x/gcc/tcc805x-freertos-debug/obj/system_monitoring.o
LOAD /home/junghyun/topst/cr5-bsp/sources/build/tcc805x/gcc/tcc805x-freertos-debug/obj/bootctrl.o
LOAD /home/junghyun/topst/cr5-bsp/sources/build/tcc805x/gcc/tcc805x-freertos-debug/obj/reset_demo.o
LOAD /home/junghyun/topst/cr5-bsp/sources/build/tcc805x/gcc/tcc805x-freertos-debug/obj/adc_test.o
LOAD /home/junghyun/topst/cr5-bsp/sources/build/tcc805x/gcc/tcc805x-freertos-debug/obj/dse_test.o
LOAD /home/junghyun/topst/cr5-bsp/sources/build/tcc805x/gcc/tcc805x-freertos-debug/obj/fmu_test.o
LOAD /home/junghyun/topst/cr5-bsp/sources/build/tcc805x/gcc/tcc805x-freertos-debug/obj/gdma_test.o
LOAD /home/junghyun/topst/cr5-bsp/sources/build/tcc805x/gcc/tcc805x-freertos-debug/obj/gic_test.o
LOAD /home/junghyun/topst/cr5-bsp/sources/build/tcc805x/gcc/tcc805x-freertos-debug/obj/gpio_test.o
LOAD /home/junghyun/topst/cr5-bsp/sources/build/tcc805x/gcc/tcc805x-freertos-debug/obj/gpsb_test.o
LOAD /home/junghyun/topst/cr5-bsp/sources/build/tcc805x/gcc/tcc805x-freertos-debug/obj/hsm_test.o
LOAD /home/junghyun/topst/cr5-bsp/sources/build/tcc805x/gcc/tcc805x-freertos-debug/obj/i2c_test.o
LOAD /home/junghyun/topst/cr5-bsp/sources/build/tcc805x/gcc/tcc805x-freertos-debug/obj/ictc_test.o
LOAD /home/junghyun/topst/cr5-bsp/sources/build/tcc805x/gcc/tcc805x-freertos-debug/obj/lin_test.o
LOAD /home/junghyun/topst/cr5-bsp/sources/build/tcc805x/gcc/tcc805x-freertos-debug/obj/pdm_test.o
LOAD /home/junghyun/topst/cr5-bsp/sources/build/tcc805x/gcc/tcc805x-freertos-debug/obj/pmio_test.o
LOAD /home/junghyun/topst/cr5-bsp/sources/build/tcc805x/gcc/tcc805x-freertos-debug/obj/timer_test.o
LOAD /home/junghyun/topst/cr5-bsp/sources/build/tcc805x/gcc/tcc805x-freertos-debug/obj/wdt_test.o
LOAD /home/junghyun/topst/cr5-bsp/sources/build/tcc805x/gcc/tcc805x-freertos-debug/obj/mptool.o
LOAD /home/junghyun/topst/cr5-bsp/sources/build/tcc805x/gcc/tcc805x-freertos-debug/obj/ipc_os.o
LOAD /home/junghyun/topst/cr5-bsp/sources/build/tcc805x/gcc/tcc805x-freertos-debug/obj/ipc_buffer.o
LOAD /home/junghyun/topst/cr5-bsp/sources/build/tcc805x/gcc/tcc805x-freertos-debug/obj/ipc_cmd.o
LOAD /home/junghyun/topst/cr5-bsp/sources/build/tcc805x/gcc/tcc805x-freertos-debug/obj/ipc_ctl.o
LOAD /home/junghyun/topst/cr5-bsp/sources/build/tcc805x/gcc/tcc805x-freertos-debug/obj/ipc_parser.o
LOAD /home/junghyun/topst/cr5-bsp/sources/build/tcc805x/gcc/tcc805x-freertos-debug/obj/ipc_api.o
LOAD /home/junghyun/topst/cr5-bsp/sources/build/tcc805x/gcc/tcc805x-freertos-debug/obj/ipc.o
LOAD /home/junghyun/topst/cr5-bsp/sources/build/tcc805x/gcc/tcc805x-freertos-debug/obj/lin.o
LOAD /home/junghyun/topst/cr5-bsp/sources/build/tcc805x/gcc/tcc805x-freertos-debug/obj/sdm.o
LOAD /home/junghyun/topst/cr5-bsp/sources/build/tcc805x/gcc/tcc805x-freertos-debug/obj/hsm_manager.o
LOAD /home/junghyun/topst/cr5-bsp/sources/build/tcc805x/gcc/tcc805x-freertos-debug/obj/adc.o
LOAD /home/junghyun/topst/cr5-bsp/sources/build/tcc805x/gcc/tcc805x-freertos-debug/obj/can.o
LOAD /home/junghyun/topst/cr5-bsp/sources/build/tcc805x/gcc/tcc805x-freertos-debug/obj/can_drv.o
LOAD /home/junghyun/topst/cr5-bsp/sources/build/tcc805x/gcc/tcc805x-freertos-debug/obj/can_msg.o
LOAD /home/junghyun/topst/cr5-bsp/sources/build/tcc805x/gcc/tcc805x-freertos-debug/obj/can_par.o
LOAD /home/junghyun/topst/cr5-bsp/sources/build/tcc805x/gcc/tcc805x-freertos-debug/obj/can_porting.o
LOAD /home/junghyun/topst/cr5-bsp/sources/build/tcc805x/gcc/tcc805x-freertos-debug/obj/clock_dev.o
LOAD /home/junghyun/topst/cr5-bsp/sources/build/tcc805x/gcc/tcc805x-freertos-debug/obj/debug.o
LOAD /home/junghyun/topst/cr5-bsp/sources/build/tcc805x/gcc/tcc805x-freertos-debug/obj/bsp.o
LOAD /home/junghyun/topst/cr5-bsp/sources/build/tcc805x/gcc/tcc805x-freertos-debug/obj/fmu.o
LOAD /home/junghyun/topst/cr5-bsp/sources/build/tcc805x/gcc/tcc805x-freertos-debug/obj/gdma.o
LOAD /home/junghyun/topst/cr5-bsp/sources/build/tcc805x/gcc/tcc805x-freertos-debug/obj/gic.o
LOAD /home/junghyun/topst/cr5-bsp/sources/build/tcc805x/gcc/tcc805x-freertos-debug/obj/gpio.o
LOAD /home/junghyun/topst/cr5-bsp/sources/build/tcc805x/gcc/tcc805x-freertos-debug/obj/i2c.o
LOAD /home/junghyun/topst/cr5-bsp/sources/build/tcc805x/gcc/tcc805x-freertos-debug/obj/i2c_reg.o
LOAD /home/junghyun/topst/cr5-bsp/sources/build/tcc805x/gcc/tcc805x-freertos-debug/obj/ictc.o
LOAD /home/junghyun/topst/cr5-bsp/sources/build/tcc805x/gcc/tcc805x-freertos-debug/obj/mbox_phy.o
LOAD /home/junghyun/topst/cr5-bsp/sources/build/tcc805x/gcc/tcc805x-freertos-debug/obj/mbox_dev.o
LOAD /home/junghyun/topst/cr5-bsp/sources/build/tcc805x/gcc/tcc805x-freertos-debug/obj/mbox.o
LOAD /home/junghyun/topst/cr5-bsp/sources/build/tcc805x/gcc/tcc805x-freertos-debug/obj/mpu.o
LOAD /home/junghyun/topst/cr5-bsp/sources/build/tcc805x/gcc/tcc805x-freertos-debug/obj/pdm.o
LOAD /home/junghyun/topst/cr5-bsp/sources/build/tcc805x/gcc/tcc805x-freertos-debug/obj/pmio_dev.o
LOAD /home/junghyun/topst/cr5-bsp/sources/build/tcc805x/gcc/tcc805x-freertos-debug/obj/gpsb.o
LOAD /home/junghyun/topst/cr5-bsp/sources/build/tcc805x/gcc/tcc805x-freertos-debug/obj/gpsb_reg.o
LOAD /home/junghyun/topst/cr5-bsp/sources/build/tcc805x/gcc/tcc805x-freertos-debug/obj/timer.o
LOAD /home/junghyun/topst/cr5-bsp/sources/build/tcc805x/gcc/tcc805x-freertos-debug/obj/uart.o
LOAD /home/junghyun/topst/cr5-bsp/sources/build/tcc805x/gcc/tcc805x-freertos-debug/obj/udma.o
LOAD /home/junghyun/topst/cr5-bsp/sources/build/tcc805x/gcc/tcc805x-freertos-debug/obj/wdt.o
LOAD /home/junghyun/topst/cr5-bsp/sources/build/tcc805x/gcc/tcc805x-freertos-debug/obj/dse.o
LOAD /home/junghyun/topst/cr5-bsp/sources/build/tcc805x/gcc/tcc805x-freertos-debug/obj/midf.o
LOAD /home/junghyun/topst/cr5-bsp/sources/build/tcc805x/gcc/tcc805x-freertos-debug/obj/pmu_reset.o
LOAD /home/junghyun/topst/cr5-bsp/sources/build/tcc805x/gcc/tcc805x-freertos-debug/obj/tasks.o
LOAD /home/junghyun/topst/cr5-bsp/sources/build/tcc805x/gcc/tcc805x-freertos-debug/obj/list.o
LOAD /home/junghyun/topst/cr5-bsp/sources/build/tcc805x/gcc/tcc805x-freertos-debug/obj/queue.o
LOAD /home/junghyun/topst/cr5-bsp/sources/build/tcc805x/gcc/tcc805x-freertos-debug/obj/event_groups.o
LOAD /home/junghyun/topst/cr5-bsp/sources/build/tcc805x/gcc/tcc805x-freertos-debug/obj/timers.o
LOAD /home/junghyun/topst/cr5-bsp/sources/build/tcc805x/gcc/tcc805x-freertos-debug/obj/stream_buffer.o
LOAD /home/junghyun/topst/cr5-bsp/sources/build/tcc805x/gcc/tcc805x-freertos-debug/obj/port.o
LOAD /home/junghyun/topst/cr5-bsp/sources/build/tcc805x/gcc/tcc805x-freertos-debug/obj/heap_5.o
LOAD /home/junghyun/topst/cr5-bsp/sources/build/tcc805x/gcc/tcc805x-freertos-debug/obj/sal_api.o
LOAD /home/junghyun/topst/cr5-bsp/sources/build/tcc805x/gcc/tcc805x-freertos-debug/obj/sal_freertos_impl.o
LOAD /home/junghyun/topst/cr5-bsp/sources/build/tcc805x/gcc/tcc805x-freertos-debug/obj/project_ipc.o
LOAD /home/junghyun/topst/cr5-bsp/sources/build/tcc805x/gcc/tcc805x-freertos-debug/obj/project_i2c.o
LOAD /home/junghyun/topst/cr5-bsp/sources/build/tcc805x/gcc/tcc805x-freertos-debug/obj/startup.o
LOAD /home/junghyun/topst/cr5-bsp/sources/build/tcc805x/gcc/tcc805x-freertos-debug/obj/vector.o
LOAD /home/junghyun/topst/cr5-bsp/sources/build/tcc805x/gcc/tcc805x-freertos-debug/obj/vfp_init.o
LOAD /home/junghyun/topst/cr5-bsp/sources/build/tcc805x/gcc/tcc805x-freertos-debug/obj/arm_a.o
LOAD /home/junghyun/topst/cr5-bsp/sources/build/tcc805x/gcc/tcc805x-freertos-debug/obj/portASM.o
LOAD /home/junghyun/topst/cr5-bsp/sources/build/tcc805x/gcc/tcc805x-freertos-debug/obj/freertos.o
LOAD /home/junghyun/topst/cr5-bsp/sources/build/tcc805x/gcc/tcc805x-freertos-debug/obj/sal.o
LOAD /home/junghyun/topst/buildtools/gcc-linaro-7.2.1-2017.11-x86_64_arm-eabi/arm-eabi/libc/usr/lib/libc.a
LOAD /home/junghyun/topst/buildtools/gcc-linaro-7.2.1-2017.11-x86_64_arm-eabi/arm-eabi/libc/usr/lib/libm.a
LOAD /home/junghyun/topst/buildtools/gcc-linaro-7.2.1-2017.11-x86_64_arm-eabi/arm-eabi/libc/usr/lib/libgcc.a
OUTPUT(/home/junghyun/topst/cr5-bsp/sources/build/tcc805x/gcc/tcc805x-freertos-debug/boot elf32-littlearm)

.debug_info     0x0000000000000000    0xb032d
 .debug_info    0x0000000000000000     0x16a1 /home/junghyun/topst/cr5-bsp/sources/build/tcc805x/gcc/tcc805x-freertos-debug/obj/main.o
 .debug_info    0x00000000000016a1     0x1bf8 /home/junghyun/topst/cr5-bsp/sources/build/tcc805x/gcc/tcc805x-freertos-debug/obj/can_demo.o
 .debug_info    0x0000000000003299     0x373d /home/junghyun/topst/cr5-bsp/sources/build/tcc805x/gcc/tcc805x-freertos-debug/obj/console.o
 .debug_info    0x00000000000069d6     0x1b3c /home/junghyun/topst/cr5-bsp/sources/build/tcc805x/gcc/tcc805x-freertos-debug/obj/fwug.o
 .debug_info    0x0000000000008512     0x1753 /home/junghyun/topst/cr5-bsp/sources/build/tcc805x/gcc/tcc805x-freertos-debug/obj/key_adc.o
 .debug_info    0x0000000000009c65     0x168c /home/junghyun/topst/cr5-bsp/sources/build/tcc805x/gcc/tcc805x-freertos-debug/obj/key_gpio.o
 .debug_info    0x000000000000b2f1     0x186d /home/junghyun/topst/cr5-bsp/sources/build/tcc805x/gcc/tcc805x-freertos-debug/obj/key_i2c.o
 .debug_info    0x000000000000cb5e     0x1925 /home/junghyun/topst/cr5-bsp/sources/build/tcc805x/gcc/tcc805x-freertos-debug/obj/key.o
 .debug_info    0x000000000000e483     0x1771 /home/junghyun/topst/cr5-bsp/sources/build/tcc805x/gcc/tcc805x-freertos-debug/obj/system_monitoring.o
 .debug_info    0x000000000000fbf4     0x1801 /home/junghyun/topst/cr5-bsp/sources/build/tcc805x/gcc/tcc805x-freertos-debug/obj/bootctrl.o
 .debug_info    0x00000000000113f5     0x1458 /home/junghyun/topst/cr5-bsp/sources/build/tcc805x/gcc/tcc805x-freertos-debug/obj/reset_demo.o
 .debug_info    0x000000000001284d     0x13e9 /home/junghyun/topst/cr5-bsp/sources/build/tcc805x/gcc/tcc805x-freertos-debug/obj/adc_test.o
 .debug_info    0x0000000000013c36     0x16fc /home/junghyun/topst/cr5-bsp/sources/build/tcc805x/gcc/tcc805x-freertos-debug/obj/dse_test.o
 .debug_info    0x0000000000015332     0x2165 /home/junghyun/topst/cr5-bsp/sources/build/tcc805x/gcc/tcc805x-freertos-debug/obj/fmu_test.o
 .debug_info    0x0000000000017497     0x14d8 /home/junghyun/topst/cr5-bsp/sources/build/tcc805x/gcc/tcc805x-freertos-debug/obj/gdma_test.o
 .debug_info    0x000000000001896f     0x14ea /home/junghyun/topst/cr5-bsp/sources/build/tcc805x/gcc/tcc805x-freertos-debug/obj/gic_test.o
 .debug_info    0x0000000000019e59     0x1524 /home/junghyun/topst/cr5-bsp/sources/build/tcc805x/gcc/tcc805x-freertos-debug/obj/gpio_test.o
 .debug_info    0x000000000001b37d     0x20e3 /home/junghyun/topst/cr5-bsp/sources/build/tcc805x/gcc/tcc805x-freertos-debug/obj/gpsb_test.o
 .debug_info    0x000000000001d460     0x295b /home/junghyun/topst/cr5-bsp/sources/build/tcc805x/gcc/tcc805x-freertos-debug/obj/hsm_test.o
 .debug_info    0x000000000001fdbb     0x19c1 /home/junghyun/topst/cr5-bsp/sources/build/tcc805x/gcc/tcc805x-freertos-debug/obj/i2c_test.o
 .debug_info    0x000000000002177c     0x14d5 /home/junghyun/topst/cr5-bsp/sources/build/tcc805x/gcc/tcc805x-freertos-debug/obj/ictc_test.o
 .debug_info    0x0000000000022c51     0x1562 /home/junghyun/topst/cr5-bsp/sources/build/tcc805x/gcc/tcc805x-freertos-debug/obj/lin_test.o
 .debug_info    0x00000000000241b3     0x1600 /home/junghyun/topst/cr5-bsp/sources/build/tcc805x/gcc/tcc805x-freertos-debug/obj/pdm_test.o
 .debug_info    0x00000000000257b3     0x2044 /home/junghyun/topst/cr5-bsp/sources/build/tcc805x/gcc/tcc805x-freertos-debug/obj/pmio_test.o
 .debug_info    0x00000000000277f7     0x1d10 /home/junghyun/topst/cr5-bsp/sources/build/tcc805x/gcc/tcc805x-freertos-debug/obj/timer_test.o
 .debug_info    0x0000000000029507     0x1c57 /home/junghyun/topst/cr5-bsp/sources/build/tcc805x/gcc/tcc805x-freertos-debug/obj/wdt_test.o
 .debug_info    0x000000000002b15e     0x1499 /home/junghyun/topst/cr5-bsp/sources/build/tcc805x/gcc/tcc805x-freertos-debug/obj/mptool.o
 .debug_info    0x000000000002c5f7     0x1dd5 /home/junghyun/topst/cr5-bsp/sources/build/tcc805x/gcc/tcc805x-freertos-debug/obj/ipc_os.o
 .debug_info    0x000000000002e3cc     0x1ac1 /home/junghyun/topst/cr5-bsp/sources/build/tcc805x/gcc/tcc805x-freertos-debug/obj/ipc_buffer.o
 .debug_info    0x000000000002fe8d     0x1a57 /home/junghyun/topst/cr5-bsp/sources/build/tcc805x/gcc/tcc805x-freertos-debug/obj/ipc_cmd.o
 .debug_info    0x00000000000318e4     0x2210 /home/junghyun/topst/cr5-bsp/sources/build/tcc805x/gcc/tcc805x-freertos-debug/obj/ipc_ctl.o
 .debug_info    0x0000000000033af4     0x1745 /home/junghyun/topst/cr5-bsp/sources/build/tcc805x/gcc/tcc805x-freertos-debug/obj/ipc_parser.o
 .debug_info    0x0000000000035239     0x1dfd /home/junghyun/topst/cr5-bsp/sources/build/tcc805x/gcc/tcc805x-freertos-debug/obj/ipc_api.o
 .debug_info    0x0000000000037036     0x16f3 /home/junghyun/topst/cr5-bsp/sources/build/tcc805x/gcc/tcc805x-freertos-debug/obj/ipc.o
 .debug_info    0x0000000000038729     0x192b /home/junghyun/topst/cr5-bsp/sources/build/tcc805x/gcc/tcc805x-freertos-debug/obj/lin.o
 .debug_info    0x000000000003a054     0x1a05 /home/junghyun/topst/cr5-bsp/sources/build/tcc805x/gcc/tcc805x-freertos-debug/obj/sdm.o
 .debug_info    0x000000000003ba59     0x2afa /home/junghyun/topst/cr5-bsp/sources/build/tcc805x/gcc/tcc805x-freertos-debug/obj/hsm_manager.o
 .debug_info    0x000000000003e553     0x1a5f /home/junghyun/topst/cr5-bsp/sources/build/tcc805x/gcc/tcc805x-freertos-debug/obj/adc.o
 .debug_info    0x000000000003ffb2     0x48c8 /home/junghyun/topst/cr5-bsp/sources/build/tcc805x/gcc/tcc805x-freertos-debug/obj/can.o
 .debug_info    0x000000000004487a     0x4f72 /home/junghyun/topst/cr5-bsp/sources/build/tcc805x/gcc/tcc805x-freertos-debug/obj/can_drv.o
 .debug_info    0x00000000000497ec     0x4f8d /home/junghyun/topst/cr5-bsp/sources/build/tcc805x/gcc/tcc805x-freertos-debug/obj/can_msg.o
 .debug_info    0x000000000004e779     0x1a57 /home/junghyun/topst/cr5-bsp/sources/build/tcc805x/gcc/tcc805x-freertos-debug/obj/can_par.o
 .debug_info    0x00000000000501d0     0x4d7e /home/junghyun/topst/cr5-bsp/sources/build/tcc805x/gcc/tcc805x-freertos-debug/obj/can_porting.o
 .debug_info    0x0000000000054f4e     0x2e64 /home/junghyun/topst/cr5-bsp/sources/build/tcc805x/gcc/tcc805x-freertos-debug/obj/clock_dev.o
 .debug_info    0x0000000000057db2     0x17f2 /home/junghyun/topst/cr5-bsp/sources/build/tcc805x/gcc/tcc805x-freertos-debug/obj/debug.o
 .debug_info    0x00000000000595a4     0x1646 /home/junghyun/topst/cr5-bsp/sources/build/tcc805x/gcc/tcc805x-freertos-debug/obj/bsp.o
 .debug_info    0x000000000005abea     0x2841 /home/junghyun/topst/cr5-bsp/sources/build/tcc805x/gcc/tcc805x-freertos-debug/obj/fmu.o
 .debug_info    0x000000000005d42b     0x1e60 /home/junghyun/topst/cr5-bsp/sources/build/tcc805x/gcc/tcc805x-freertos-debug/obj/gdma.o
 .debug_info    0x000000000005f28b     0x1fc5 /home/junghyun/topst/cr5-bsp/sources/build/tcc805x/gcc/tcc805x-freertos-debug/obj/gic.o
 .debug_info    0x0000000000061250     0x16d7 /home/junghyun/topst/cr5-bsp/sources/build/tcc805x/gcc/tcc805x-freertos-debug/obj/gpio.o
 .debug_info    0x0000000000062927     0x243f /home/junghyun/topst/cr5-bsp/sources/build/tcc805x/gcc/tcc805x-freertos-debug/obj/i2c.o
 .debug_info    0x0000000000064d66     0x18d5 /home/junghyun/topst/cr5-bsp/sources/build/tcc805x/gcc/tcc805x-freertos-debug/obj/i2c_reg.o
 .debug_info    0x000000000006663b     0x2088 /home/junghyun/topst/cr5-bsp/sources/build/tcc805x/gcc/tcc805x-freertos-debug/obj/ictc.o
 .debug_info    0x00000000000686c3     0x278b /home/junghyun/topst/cr5-bsp/sources/build/tcc805x/gcc/tcc805x-freertos-debug/obj/mbox_phy.o
 .debug_info    0x000000000006ae4e     0x35c8 /home/junghyun/topst/cr5-bsp/sources/build/tcc805x/gcc/tcc805x-freertos-debug/obj/mbox_dev.o
 .debug_info    0x000000000006e416     0x2222 /home/junghyun/topst/cr5-bsp/sources/build/tcc805x/gcc/tcc805x-freertos-debug/obj/mbox.o
 .debug_info    0x0000000000070638     0x15b2 /home/junghyun/topst/cr5-bsp/sources/build/tcc805x/gcc/tcc805x-freertos-debug/obj/mpu.o
 .debug_info    0x0000000000071bea     0x27b9 /home/junghyun/topst/cr5-bsp/sources/build/tcc805x/gcc/tcc805x-freertos-debug/obj/pdm.o
 .debug_info    0x00000000000743a3     0x2df5 /home/junghyun/topst/cr5-bsp/sources/build/tcc805x/gcc/tcc805x-freertos-debug/obj/pmio_dev.o
 .debug_info    0x0000000000077198     0x31e0 /home/junghyun/topst/cr5-bsp/sources/build/tcc805x/gcc/tcc805x-freertos-debug/obj/gpsb.o
 .debug_info    0x000000000007a378     0x190c /home/junghyun/topst/cr5-bsp/sources/build/tcc805x/gcc/tcc805x-freertos-debug/obj/gpsb_reg.o
 .debug_info    0x000000000007bc84     0x1da4 /home/junghyun/topst/cr5-bsp/sources/build/tcc805x/gcc/tcc805x-freertos-debug/obj/timer.o
 .debug_info    0x000000000007da28     0x2fe0 /home/junghyun/topst/cr5-bsp/sources/build/tcc805x/gcc/tcc805x-freertos-debug/obj/uart.o
 .debug_info    0x0000000000080a08     0x2192 /home/junghyun/topst/cr5-bsp/sources/build/tcc805x/gcc/tcc805x-freertos-debug/obj/udma.o
 .debug_info    0x0000000000082b9a     0x1c2e /home/junghyun/topst/cr5-bsp/sources/build/tcc805x/gcc/tcc805x-freertos-debug/obj/wdt.o
 .debug_info    0x00000000000847c8     0x1945 /home/junghyun/topst/cr5-bsp/sources/build/tcc805x/gcc/tcc805x-freertos-debug/obj/dse.o
 .debug_info    0x000000000008610d     0x18ec /home/junghyun/topst/cr5-bsp/sources/build/tcc805x/gcc/tcc805x-freertos-debug/obj/midf.o
 .debug_info    0x00000000000879f9     0x1881 /home/junghyun/topst/cr5-bsp/sources/build/tcc805x/gcc/tcc805x-freertos-debug/obj/pmu_reset.o
 .debug_info    0x000000000008927a     0x22d6 /home/junghyun/topst/cr5-bsp/sources/build/tcc805x/gcc/tcc805x-freertos-debug/obj/tasks.o
 .debug_info    0x000000000008b550      0xbe3 /home/junghyun/topst/cr5-bsp/sources/build/tcc805x/gcc/tcc805x-freertos-debug/obj/list.o
 .debug_info    0x000000000008c133     0x1ee8 /home/junghyun/topst/cr5-bsp/sources/build/tcc805x/gcc/tcc805x-freertos-debug/obj/queue.o
 .debug_info    0x000000000008e01b     0x10e3 /home/junghyun/topst/cr5-bsp/sources/build/tcc805x/gcc/tcc805x-freertos-debug/obj/event_groups.o
 .debug_info    0x000000000008f0fe     0x1988 /home/junghyun/topst/cr5-bsp/sources/build/tcc805x/gcc/tcc805x-freertos-debug/obj/timers.o
 .debug_info    0x0000000000090a86     0x15bb /home/junghyun/topst/cr5-bsp/sources/build/tcc805x/gcc/tcc805x-freertos-debug/obj/stream_buffer.o
 .debug_info    0x0000000000092041     0x268a /home/junghyun/topst/cr5-bsp/sources/build/tcc805x/gcc/tcc805x-freertos-debug/obj/port.o
 .debug_info    0x00000000000946cb      0xd9d /home/junghyun/topst/cr5-bsp/sources/build/tcc805x/gcc/tcc805x-freertos-debug/obj/heap_5.o
 .debug_info    0x0000000000095468     0x153d /home/junghyun/topst/cr5-bsp/sources/build/tcc805x/gcc/tcc805x-freertos-debug/obj/sal_api.o
 .debug_info    0x00000000000969a5     0x33db /home/junghyun/topst/cr5-bsp/sources/build/tcc805x/gcc/tcc805x-freertos-debug/obj/sal_freertos_impl.o
 .debug_info    0x0000000000099d80     0x1491 /home/junghyun/topst/cr5-bsp/sources/build/tcc805x/gcc/tcc805x-freertos-debug/obj/project_ipc.o
 .debug_info    0x000000000009b211     0x17a7 /home/junghyun/topst/cr5-bsp/sources/build/tcc805x/gcc/tcc805x-freertos-debug/obj/project_i2c.o
 .debug_info    0x000000000009c9b8       0x98 /home/junghyun/topst/cr5-bsp/sources/build/tcc805x/gcc/tcc805x-freertos-debug/obj/startup.o
 .debug_info    0x000000000009ca50       0x97 /home/junghyun/topst/cr5-bsp/sources/build/tcc805x/gcc/tcc805x-freertos-debug/obj/vector.o
 .debug_info    0x000000000009cae7       0x99 /home/junghyun/topst/cr5-bsp/sources/build/tcc805x/gcc/tcc805x-freertos-debug/obj/vfp_init.o
 .debug_info    0x000000000009cb80       0x96 /home/junghyun/topst/cr5-bsp/sources/build/tcc805x/gcc/tcc805x-freertos-debug/obj/arm_a.o
 .debug_info    0x000000000009cc16       0xb0 /home/junghyun/topst/cr5-bsp/sources/build/tcc805x/gcc/tcc805x-freertos-debug/obj/portASM.o
 .debug_info    0x000000000009ccc6       0xb1 /home/junghyun/topst/cr5-bsp/sources/build/tcc805x/gcc/tcc805x-freertos-debug/obj/freertos.o
 .debug_info    0x000000000009cd77       0x8e /home/junghyun/topst/cr5-bsp/sources/build/tcc805x/gcc/tcc805x-freertos-debug/obj/sal.o
 .debug_info    0x000000000009ce05      0x945 /home/junghyun/topst/buildtools/gcc-linaro-7.2.1-2017.11-x86_64_arm-eabi/arm-eabi/libc/usr/lib/libc.a(lib_a-atoi.o)
 .debug_info    0x000000000009d74a      0x945 /home/junghyun/topst/buildtools/gcc-linaro-7.2.1-2017.11-x86_64_arm-eabi/arm-eabi/libc/usr/lib/libc.a(lib_a-atol.o)
 .debug_info    0x000000000009e08f      0x91d /home/junghyun/topst/buildtools/gcc-linaro-7.2.1-2017.11-x86_64_arm-eabi/arm-eabi/libc/usr/lib/libc.a(lib_a-memcmp.o)
 .debug_info    0x000000000009e9ac      0x938 /home/junghyun/topst/buildtools/gcc-linaro-7.2.1-2017.11-x86_64_arm-eabi/arm-eabi/libc/usr/lib/libc.a(lib_a-memcpy-stub.o)
 .debug_info    0x000000000009f2e4      0xe22 /home/junghyun/topst/buildtools/gcc-linaro-7.2.1-2017.11-x86_64_arm-eabi/arm-eabi/libc/usr/lib/libc.a(lib_a-memset.o)
 .debug_info    0x00000000000a0106      0x8ba /home/junghyun/topst/buildtools/gcc-linaro-7.2.1-2017.11-x86_64_arm-eabi/arm-eabi/libc/usr/lib/libc.a(lib_a-strlen-stub.o)
 .debug_info    0x00000000000a09c0      0x8fa /home/junghyun/topst/buildtools/gcc-linaro-7.2.1-2017.11-x86_64_arm-eabi/arm-eabi/libc/usr/lib/libc.a(lib_a-strncmp.o)
 .debug_info    0x00000000000a12ba      0x92d /home/junghyun/topst/buildtools/gcc-linaro-7.2.1-2017.11-x86_64_arm-eabi/arm-eabi/libc/usr/lib/libc.a(lib_a-strncpy.o)
 .debug_info    0x00000000000a1be7      0x8d6 /home/junghyun/topst/buildtools/gcc-linaro-7.2.1-2017.11-x86_64_arm-eabi/arm-eabi/libc/usr/lib/libc.a(lib_a-strnlen.o)
 .debug_info    0x00000000000a24bd     0x10d6 /home/junghyun/topst/buildtools/gcc-linaro-7.2.1-2017.11-x86_64_arm-eabi/arm-eabi/libc/usr/lib/libc.a(lib_a-strtol.o)
 .debug_info    0x00000000000a3593     0x10d6 /home/junghyun/topst/buildtools/gcc-linaro-7.2.1-2017.11-x86_64_arm-eabi/arm-eabi/libc/usr/lib/libc.a(lib_a-strtoul.o)
 .debug_info    0x00000000000a4669      0x8a9 /home/junghyun/topst/buildtools/gcc-linaro-7.2.1-2017.11-x86_64_arm-eabi/arm-eabi/libc/usr/lib/libc.a(lib_a-impure.o)
 .debug_info    0x00000000000a4f12     0x1b01 /home/junghyun/topst/buildtools/gcc-linaro-7.2.1-2017.11-x86_64_arm-eabi/arm-eabi/libc/usr/lib/libc.a(lib_a-locale.o)
 .debug_info    0x00000000000a6a13     0x134a /home/junghyun/topst/buildtools/gcc-linaro-7.2.1-2017.11-x86_64_arm-eabi/arm-eabi/libc/usr/lib/libc.a(lib_a-mbtowc_r.o)
 .debug_info    0x00000000000a7d5d      0x95e /home/junghyun/topst/buildtools/gcc-linaro-7.2.1-2017.11-x86_64_arm-eabi/arm-eabi/libc/usr/lib/libc.a(lib_a-strcasecmp.o)
 .debug_info    0x00000000000a86bb      0x90e /home/junghyun/topst/buildtools/gcc-linaro-7.2.1-2017.11-x86_64_arm-eabi/arm-eabi/libc/usr/lib/libc.a(lib_a-strcat.o)
 .debug_info    0x00000000000a8fc9      0x915 /home/junghyun/topst/buildtools/gcc-linaro-7.2.1-2017.11-x86_64_arm-eabi/arm-eabi/libc/usr/lib/libc.a(lib_a-strchr.o)
 .debug_info    0x00000000000a98de      0x1b4 /home/junghyun/topst/buildtools/gcc-linaro-7.2.1-2017.11-x86_64_arm-eabi/arm-eabi/libc/usr/lib/libc.a(lib_a-strcmp.o)
 .debug_info    0x00000000000a9a92      0x8bc /home/junghyun/topst/buildtools/gcc-linaro-7.2.1-2017.11-x86_64_arm-eabi/arm-eabi/libc/usr/lib/libc.a(lib_a-strcpy.o)
 .debug_info    0x00000000000aa34e      0x8fd /home/junghyun/topst/buildtools/gcc-linaro-7.2.1-2017.11-x86_64_arm-eabi/arm-eabi/libc/usr/lib/libc.a(lib_a-strlcpy.o)
 .debug_info    0x00000000000aac4b      0x97a /home/junghyun/topst/buildtools/gcc-linaro-7.2.1-2017.11-x86_64_arm-eabi/arm-eabi/libc/usr/lib/libc.a(lib_a-strncasecmp.o)
 .debug_info    0x00000000000ab5c5     0x111b /home/junghyun/topst/buildtools/gcc-linaro-7.2.1-2017.11-x86_64_arm-eabi/arm-eabi/libc/usr/lib/libc.a(lib_a-wctomb_r.o)
 .debug_info    0x00000000000ac6e0      0xdfc /home/junghyun/topst/buildtools/gcc-linaro-7.2.1-2017.11-x86_64_arm-eabi/arm-eabi/libc/usr/lib/libc.a(lib_a-ctype_.o)
 .debug_info    0x00000000000ad4dc      0xa04 /home/junghyun/topst/buildtools/gcc-linaro-7.2.1-2017.11-x86_64_arm-eabi/arm-eabi/libc/usr/lib/libc.a(lib_a-getenv_r.o)
 .debug_info    0x00000000000adee0       0x6a /home/junghyun/topst/buildtools/gcc-linaro-7.2.1-2017.11-x86_64_arm-eabi/arm-eabi/libc/usr/lib/libc.a(lib_a-environ.o)
 .debug_info    0x00000000000adf4a      0x8dc /home/junghyun/topst/buildtools/gcc-linaro-7.2.1-2017.11-x86_64_arm-eabi/arm-eabi/libc/usr/lib/libc.a(lib_a-envlock.o)
 .debug_info    0x00000000000ae826      0x1a7 /home/junghyun/topst/buildtools/gcc-linaro-7.2.1-2017.11-x86_64_arm-eabi/arm-eabi/libc/usr/lib/libgcc.a(_udivsi3.o)
 .debug_info    0x00000000000ae9cd      0x1a7 /home/junghyun/topst/buildtools/gcc-linaro-7.2.1-2017.11-x86_64_arm-eabi/arm-eabi/libc/usr/lib/libgcc.a(_dvmd_tls.o)
 .debug_info    0x00000000000aeb74      0x1a3 /home/junghyun/topst/buildtools/gcc-linaro-7.2.1-2017.11-x86_64_arm-eabi/arm-eabi/libc/usr/lib/libgcc.a(_aeabi_uldivmod.o)
 .debug_info    0x00000000000aed17     0x12c8 /home/junghyun/topst/buildtools/gcc-linaro-7.2.1-2017.11-x86_64_arm-eabi/arm-eabi/libc/usr/lib/libgcc.a(_udivmoddi4.o)
 .debug_info    0x00000000000affdf      0x1a7 /home/junghyun/topst/buildtools/gcc-linaro-7.2.1-2017.11-x86_64_arm-eabi/arm-eabi/libc/usr/lib/libgcc.a(_clzdi2.o)
 .debug_info    0x00000000000b0186      0x1a7 /home/junghyun/topst/buildtools/gcc-linaro-7.2.1-2017.11-x86_64_arm-eabi/arm-eabi/libc/usr/lib/libgcc.a(_clzsi2.o)

.debug_abbrev   0x0000000000000000     0xda29
 .debug_abbrev  0x0000000000000000      0x1b6 /home/junghyun/topst/cr5-bsp/sources/build/tcc805x/gcc/tcc805x-freertos-debug/obj/main.o
 .debug_abbrev  0x00000000000001b6      0x22a /home/junghyun/topst/cr5-bsp/sources/build/tcc805x/gcc/tcc805x-freertos-debug/obj/can_demo.o
 .debug_abbrev  0x00000000000003e0      0x2cb /home/junghyun/topst/cr5-bsp/sources/build/tcc805x/gcc/tcc805x-freertos-debug/obj/console.o
 .debug_abbrev  0x00000000000006ab      0x1cb /home/junghyun/topst/cr5-bsp/sources/build/tcc805x/gcc/tcc805x-freertos-debug/obj/fwug.o
 .debug_abbrev  0x0000000000000876      0x1d6 /home/junghyun/topst/cr5-bsp/sources/build/tcc805x/gcc/tcc805x-freertos-debug/obj/key_adc.o
 .debug_abbrev  0x0000000000000a4c      0x1cc /home/junghyun/topst/cr5-bsp/sources/build/tcc805x/gcc/tcc805x-freertos-debug/obj/key_gpio.o
 .debug_abbrev  0x0000000000000c18      0x20e /home/junghyun/topst/cr5-bsp/sources/build/tcc805x/gcc/tcc805x-freertos-debug/obj/key_i2c.o
 .debug_abbrev  0x0000000000000e26      0x1f5 /home/junghyun/topst/cr5-bsp/sources/build/tcc805x/gcc/tcc805x-freertos-debug/obj/key.o
 .debug_abbrev  0x000000000000101b      0x1bb /home/junghyun/topst/cr5-bsp/sources/build/tcc805x/gcc/tcc805x-freertos-debug/obj/system_monitoring.o
 .debug_abbrev  0x00000000000011d6      0x1dc /home/junghyun/topst/cr5-bsp/sources/build/tcc805x/gcc/tcc805x-freertos-debug/obj/bootctrl.o
 .debug_abbrev  0x00000000000013b2      0x157 /home/junghyun/topst/cr5-bsp/sources/build/tcc805x/gcc/tcc805x-freertos-debug/obj/reset_demo.o
 .debug_abbrev  0x0000000000001509      0x10c /home/junghyun/topst/cr5-bsp/sources/build/tcc805x/gcc/tcc805x-freertos-debug/obj/adc_test.o
 .debug_abbrev  0x0000000000001615      0x1a7 /home/junghyun/topst/cr5-bsp/sources/build/tcc805x/gcc/tcc805x-freertos-debug/obj/dse_test.o
 .debug_abbrev  0x00000000000017bc      0x1e8 /home/junghyun/topst/cr5-bsp/sources/build/tcc805x/gcc/tcc805x-freertos-debug/obj/fmu_test.o
 .debug_abbrev  0x00000000000019a4      0x155 /home/junghyun/topst/cr5-bsp/sources/build/tcc805x/gcc/tcc805x-freertos-debug/obj/gdma_test.o
 .debug_abbrev  0x0000000000001af9      0x16d /home/junghyun/topst/cr5-bsp/sources/build/tcc805x/gcc/tcc805x-freertos-debug/obj/gic_test.o
 .debug_abbrev  0x0000000000001c66      0x19d /home/junghyun/topst/cr5-bsp/sources/build/tcc805x/gcc/tcc805x-freertos-debug/obj/gpio_test.o
 .debug_abbrev  0x0000000000001e03      0x21c /home/junghyun/topst/cr5-bsp/sources/build/tcc805x/gcc/tcc805x-freertos-debug/obj/gpsb_test.o
 .debug_abbrev  0x000000000000201f      0x282 /home/junghyun/topst/cr5-bsp/sources/build/tcc805x/gcc/tcc805x-freertos-debug/obj/hsm_test.o
 .debug_abbrev  0x00000000000022a1      0x1d6 /home/junghyun/topst/cr5-bsp/sources/build/tcc805x/gcc/tcc805x-freertos-debug/obj/i2c_test.o
 .debug_abbrev  0x0000000000002477      0x18c /home/junghyun/topst/cr5-bsp/sources/build/tcc805x/gcc/tcc805x-freertos-debug/obj/ictc_test.o
 .debug_abbrev  0x0000000000002603      0x181 /home/junghyun/topst/cr5-bsp/sources/build/tcc805x/gcc/tcc805x-freertos-debug/obj/lin_test.o
 .debug_abbrev  0x0000000000002784      0x1d1 /home/junghyun/topst/cr5-bsp/sources/build/tcc805x/gcc/tcc805x-freertos-debug/obj/pdm_test.o
 .debug_abbrev  0x0000000000002955      0x2a1 /home/junghyun/topst/cr5-bsp/sources/build/tcc805x/gcc/tcc805x-freertos-debug/obj/pmio_test.o
 .debug_abbrev  0x0000000000002bf6      0x20f /home/junghyun/topst/cr5-bsp/sources/build/tcc805x/gcc/tcc805x-freertos-debug/obj/timer_test.o
 .debug_abbrev  0x0000000000002e05      0x230 /home/junghyun/topst/cr5-bsp/sources/build/tcc805x/gcc/tcc805x-freertos-debug/obj/wdt_test.o
 .debug_abbrev  0x0000000000003035      0x18c /home/junghyun/topst/cr5-bsp/sources/build/tcc805x/gcc/tcc805x-freertos-debug/obj/mptool.o
 .debug_abbrev  0x00000000000031c1      0x24b /home/junghyun/topst/cr5-bsp/sources/build/tcc805x/gcc/tcc805x-freertos-debug/obj/ipc_os.o
 .debug_abbrev  0x000000000000340c      0x217 /home/junghyun/topst/cr5-bsp/sources/build/tcc805x/gcc/tcc805x-freertos-debug/obj/ipc_buffer.o
 .debug_abbrev  0x0000000000003623      0x1f3 /home/junghyun/topst/cr5-bsp/sources/build/tcc805x/gcc/tcc805x-freertos-debug/obj/ipc_cmd.o
 .debug_abbrev  0x0000000000003816      0x2d0 /home/junghyun/topst/cr5-bsp/sources/build/tcc805x/gcc/tcc805x-freertos-debug/obj/ipc_ctl.o
 .debug_abbrev  0x0000000000003ae6      0x1aa /home/junghyun/topst/cr5-bsp/sources/build/tcc805x/gcc/tcc805x-freertos-debug/obj/ipc_parser.o
 .debug_abbrev  0x0000000000003c90      0x23a /home/junghyun/topst/cr5-bsp/sources/build/tcc805x/gcc/tcc805x-freertos-debug/obj/ipc_api.o
 .debug_abbrev  0x0000000000003eca      0x17c /home/junghyun/topst/cr5-bsp/sources/build/tcc805x/gcc/tcc805x-freertos-debug/obj/ipc.o
 .debug_abbrev  0x0000000000004046      0x1dd /home/junghyun/topst/cr5-bsp/sources/build/tcc805x/gcc/tcc805x-freertos-debug/obj/lin.o
 .debug_abbrev  0x0000000000004223      0x1dd /home/junghyun/topst/cr5-bsp/sources/build/tcc805x/gcc/tcc805x-freertos-debug/obj/sdm.o
 .debug_abbrev  0x0000000000004400      0x273 /home/junghyun/topst/cr5-bsp/sources/build/tcc805x/gcc/tcc805x-freertos-debug/obj/hsm_manager.o
 .debug_abbrev  0x0000000000004673      0x212 /home/junghyun/topst/cr5-bsp/sources/build/tcc805x/gcc/tcc805x-freertos-debug/obj/adc.o
 .debug_abbrev  0x0000000000004885      0x252 /home/junghyun/topst/cr5-bsp/sources/build/tcc805x/gcc/tcc805x-freertos-debug/obj/can.o
 .debug_abbrev  0x0000000000004ad7      0x2a7 /home/junghyun/topst/cr5-bsp/sources/build/tcc805x/gcc/tcc805x-freertos-debug/obj/can_drv.o
 .debug_abbrev  0x0000000000004d7e      0x293 /home/junghyun/topst/cr5-bsp/sources/build/tcc805x/gcc/tcc805x-freertos-debug/obj/can_msg.o
 .debug_abbrev  0x0000000000005011      0x128 /home/junghyun/topst/cr5-bsp/sources/build/tcc805x/gcc/tcc805x-freertos-debug/obj/can_par.o
 .debug_abbrev  0x0000000000005139      0x26a /home/junghyun/topst/cr5-bsp/sources/build/tcc805x/gcc/tcc805x-freertos-debug/obj/can_porting.o
 .debug_abbrev  0x00000000000053a3      0x2dd /home/junghyun/topst/cr5-bsp/sources/build/tcc805x/gcc/tcc805x-freertos-debug/obj/clock_dev.o
 .debug_abbrev  0x0000000000005680      0x21e /home/junghyun/topst/cr5-bsp/sources/build/tcc805x/gcc/tcc805x-freertos-debug/obj/debug.o
 .debug_abbrev  0x000000000000589e      0x16e /home/junghyun/topst/cr5-bsp/sources/build/tcc805x/gcc/tcc805x-freertos-debug/obj/bsp.o
 .debug_abbrev  0x0000000000005a0c      0x25a /home/junghyun/topst/cr5-bsp/sources/build/tcc805x/gcc/tcc805x-freertos-debug/obj/fmu.o
 .debug_abbrev  0x0000000000005c66      0x204 /home/junghyun/topst/cr5-bsp/sources/build/tcc805x/gcc/tcc805x-freertos-debug/obj/gdma.o
 .debug_abbrev  0x0000000000005e6a      0x22b /home/junghyun/topst/cr5-bsp/sources/build/tcc805x/gcc/tcc805x-freertos-debug/obj/gic.o
 .debug_abbrev  0x0000000000006095      0x1c7 /home/junghyun/topst/cr5-bsp/sources/build/tcc805x/gcc/tcc805x-freertos-debug/obj/gpio.o
 .debug_abbrev  0x000000000000625c      0x288 /home/junghyun/topst/cr5-bsp/sources/build/tcc805x/gcc/tcc805x-freertos-debug/obj/i2c.o
 .debug_abbrev  0x00000000000064e4      0x12a /home/junghyun/topst/cr5-bsp/sources/build/tcc805x/gcc/tcc805x-freertos-debug/obj/i2c_reg.o
 .debug_abbrev  0x000000000000660e      0x270 /home/junghyun/topst/cr5-bsp/sources/build/tcc805x/gcc/tcc805x-freertos-debug/obj/ictc.o
 .debug_abbrev  0x000000000000687e      0x2e1 /home/junghyun/topst/cr5-bsp/sources/build/tcc805x/gcc/tcc805x-freertos-debug/obj/mbox_phy.o
 .debug_abbrev  0x0000000000006b5f      0x340 /home/junghyun/topst/cr5-bsp/sources/build/tcc805x/gcc/tcc805x-freertos-debug/obj/mbox_dev.o
 .debug_abbrev  0x0000000000006e9f      0x267 /home/junghyun/topst/cr5-bsp/sources/build/tcc805x/gcc/tcc805x-freertos-debug/obj/mbox.o
 .debug_abbrev  0x0000000000007106      0x1b4 /home/junghyun/topst/cr5-bsp/sources/build/tcc805x/gcc/tcc805x-freertos-debug/obj/mpu.o
 .debug_abbrev  0x00000000000072ba      0x236 /home/junghyun/topst/cr5-bsp/sources/build/tcc805x/gcc/tcc805x-freertos-debug/obj/pdm.o
 .debug_abbrev  0x00000000000074f0      0x32d /home/junghyun/topst/cr5-bsp/sources/build/tcc805x/gcc/tcc805x-freertos-debug/obj/pmio_dev.o
 .debug_abbrev  0x000000000000781d      0x24a /home/junghyun/topst/cr5-bsp/sources/build/tcc805x/gcc/tcc805x-freertos-debug/obj/gpsb.o
 .debug_abbrev  0x0000000000007a67      0x119 /home/junghyun/topst/cr5-bsp/sources/build/tcc805x/gcc/tcc805x-freertos-debug/obj/gpsb_reg.o
 .debug_abbrev  0x0000000000007b80      0x1f2 /home/junghyun/topst/cr5-bsp/sources/build/tcc805x/gcc/tcc805x-freertos-debug/obj/timer.o
 .debug_abbrev  0x0000000000007d72      0x249 /home/junghyun/topst/cr5-bsp/sources/build/tcc805x/gcc/tcc805x-freertos-debug/obj/uart.o
 .debug_abbrev  0x0000000000007fbb      0x24d /home/junghyun/topst/cr5-bsp/sources/build/tcc805x/gcc/tcc805x-freertos-debug/obj/udma.o
 .debug_abbrev  0x0000000000008208      0x24c /home/junghyun/topst/cr5-bsp/sources/build/tcc805x/gcc/tcc805x-freertos-debug/obj/wdt.o
 .debug_abbrev  0x0000000000008454      0x1fb /home/junghyun/topst/cr5-bsp/sources/build/tcc805x/gcc/tcc805x-freertos-debug/obj/dse.o
 .debug_abbrev  0x000000000000864f      0x206 /home/junghyun/topst/cr5-bsp/sources/build/tcc805x/gcc/tcc805x-freertos-debug/obj/midf.o
 .debug_abbrev  0x0000000000008855      0x218 /home/junghyun/topst/cr5-bsp/sources/build/tcc805x/gcc/tcc805x-freertos-debug/obj/pmu_reset.o
 .debug_abbrev  0x0000000000008a6d      0x2fe /home/junghyun/topst/cr5-bsp/sources/build/tcc805x/gcc/tcc805x-freertos-debug/obj/tasks.o
 .debug_abbrev  0x0000000000008d6b      0x1e4 /home/junghyun/topst/cr5-bsp/sources/build/tcc805x/gcc/tcc805x-freertos-debug/obj/list.o
 .debug_abbrev  0x0000000000008f4f      0x2bf /home/junghyun/topst/cr5-bsp/sources/build/tcc805x/gcc/tcc805x-freertos-debug/obj/queue.o
 .debug_abbrev  0x000000000000920e      0x229 /home/junghyun/topst/cr5-bsp/sources/build/tcc805x/gcc/tcc805x-freertos-debug/obj/event_groups.o
 .debug_abbrev  0x0000000000009437      0x291 /home/junghyun/topst/cr5-bsp/sources/build/tcc805x/gcc/tcc805x-freertos-debug/obj/timers.o
 .debug_abbrev  0x00000000000096c8      0x294 /home/junghyun/topst/cr5-bsp/sources/build/tcc805x/gcc/tcc805x-freertos-debug/obj/stream_buffer.o
 .debug_abbrev  0x000000000000995c      0x303 /home/junghyun/topst/cr5-bsp/sources/build/tcc805x/gcc/tcc805x-freertos-debug/obj/port.o
 .debug_abbrev  0x0000000000009c5f      0x252 /home/junghyun/topst/cr5-bsp/sources/build/tcc805x/gcc/tcc805x-freertos-debug/obj/heap_5.o
 .debug_abbrev  0x0000000000009eb1      0x154 /home/junghyun/topst/cr5-bsp/sources/build/tcc805x/gcc/tcc805x-freertos-debug/obj/sal_api.o
 .debug_abbrev  0x000000000000a005      0x27f /home/junghyun/topst/cr5-bsp/sources/build/tcc805x/gcc/tcc805x-freertos-debug/obj/sal_freertos_impl.o
 .debug_abbrev  0x000000000000a284      0x155 /home/junghyun/topst/cr5-bsp/sources/build/tcc805x/gcc/tcc805x-freertos-debug/obj/project_ipc.o
 .debug_abbrev  0x000000000000a3d9      0x1ae /home/junghyun/topst/cr5-bsp/sources/build/tcc805x/gcc/tcc805x-freertos-debug/obj/project_i2c.o
 .debug_abbrev  0x000000000000a587       0x14 /home/junghyun/topst/cr5-bsp/sources/build/tcc805x/gcc/tcc805x-freertos-debug/obj/startup.o
 .debug_abbrev  0x000000000000a59b       0x14 /home/junghyun/topst/cr5-bsp/sources/build/tcc805x/gcc/tcc805x-freertos-debug/obj/vector.o
 .debug_abbrev  0x000000000000a5af       0x14 /home/junghyun/topst/cr5-bsp/sources/build/tcc805x/gcc/tcc805x-freertos-debug/obj/vfp_init.o
 .debug_abbrev  0x000000000000a5c3       0x14 /home/junghyun/topst/cr5-bsp/sources/build/tcc805x/gcc/tcc805x-freertos-debug/obj/arm_a.o
 .debug_abbrev  0x000000000000a5d7       0x14 /home/junghyun/topst/cr5-bsp/sources/build/tcc805x/gcc/tcc805x-freertos-debug/obj/portASM.o
 .debug_abbrev  0x000000000000a5eb       0x14 /home/junghyun/topst/cr5-bsp/sources/build/tcc805x/gcc/tcc805x-freertos-debug/obj/freertos.o
 .debug_abbrev  0x000000000000a5ff       0x14 /home/junghyun/topst/cr5-bsp/sources/build/tcc805x/gcc/tcc805x-freertos-debug/obj/sal.o
 .debug_abbrev  0x000000000000a613      0x1e2 /home/junghyun/topst/buildtools/gcc-linaro-7.2.1-2017.11-x86_64_arm-eabi/arm-eabi/libc/usr/lib/libc.a(lib_a-atoi.o)
 .debug_abbrev  0x000000000000a7f5      0x1e2 /home/junghyun/topst/buildtools/gcc-linaro-7.2.1-2017.11-x86_64_arm-eabi/arm-eabi/libc/usr/lib/libc.a(lib_a-atol.o)
 .debug_abbrev  0x000000000000a9d7      0x1bd /home/junghyun/topst/buildtools/gcc-linaro-7.2.1-2017.11-x86_64_arm-eabi/arm-eabi/libc/usr/lib/libc.a(lib_a-memcmp.o)
 .debug_abbrev  0x000000000000ab94      0x1e2 /home/junghyun/topst/buildtools/gcc-linaro-7.2.1-2017.11-x86_64_arm-eabi/arm-eabi/libc/usr/lib/libc.a(lib_a-memcpy-stub.o)
 .debug_abbrev  0x000000000000ad76      0x1de /home/junghyun/topst/buildtools/gcc-linaro-7.2.1-2017.11-x86_64_arm-eabi/arm-eabi/libc/usr/lib/libc.a(lib_a-memset.o)
 .debug_abbrev  0x000000000000af54      0x1a7 /home/junghyun/topst/buildtools/gcc-linaro-7.2.1-2017.11-x86_64_arm-eabi/arm-eabi/libc/usr/lib/libc.a(lib_a-strlen-stub.o)
 .debug_abbrev  0x000000000000b0fb      0x1b8 /home/junghyun/topst/buildtools/gcc-linaro-7.2.1-2017.11-x86_64_arm-eabi/arm-eabi/libc/usr/lib/libc.a(lib_a-strncmp.o)
 .debug_abbrev  0x000000000000b2b3      0x1ea /home/junghyun/topst/buildtools/gcc-linaro-7.2.1-2017.11-x86_64_arm-eabi/arm-eabi/libc/usr/lib/libc.a(lib_a-strncpy.o)
 .debug_abbrev  0x000000000000b49d      0x1b6 /home/junghyun/topst/buildtools/gcc-linaro-7.2.1-2017.11-x86_64_arm-eabi/arm-eabi/libc/usr/lib/libc.a(lib_a-strnlen.o)
 .debug_abbrev  0x000000000000b653      0x2bb /home/junghyun/topst/buildtools/gcc-linaro-7.2.1-2017.11-x86_64_arm-eabi/arm-eabi/libc/usr/lib/libc.a(lib_a-strtol.o)
 .debug_abbrev  0x000000000000b90e      0x2bb /home/junghyun/topst/buildtools/gcc-linaro-7.2.1-2017.11-x86_64_arm-eabi/arm-eabi/libc/usr/lib/libc.a(lib_a-strtoul.o)
 .debug_abbrev  0x000000000000bbc9      0x192 /home/junghyun/topst/buildtools/gcc-linaro-7.2.1-2017.11-x86_64_arm-eabi/arm-eabi/libc/usr/lib/libc.a(lib_a-impure.o)
 .debug_abbrev  0x000000000000bd5b      0x39c /home/junghyun/topst/buildtools/gcc-linaro-7.2.1-2017.11-x86_64_arm-eabi/arm-eabi/libc/usr/lib/libc.a(lib_a-locale.o)
 .debug_abbrev  0x000000000000c0f7      0x2d8 /home/junghyun/topst/buildtools/gcc-linaro-7.2.1-2017.11-x86_64_arm-eabi/arm-eabi/libc/usr/lib/libc.a(lib_a-mbtowc_r.o)
 .debug_abbrev  0x000000000000c3cf      0x1fc /home/junghyun/topst/buildtools/gcc-linaro-7.2.1-2017.11-x86_64_arm-eabi/arm-eabi/libc/usr/lib/libc.a(lib_a-strcasecmp.o)
 .debug_abbrev  0x000000000000c5cb      0x1f5 /home/junghyun/topst/buildtools/gcc-linaro-7.2.1-2017.11-x86_64_arm-eabi/arm-eabi/libc/usr/lib/libc.a(lib_a-strcat.o)
 .debug_abbrev  0x000000000000c7c0      0x1c7 /home/junghyun/topst/buildtools/gcc-linaro-7.2.1-2017.11-x86_64_arm-eabi/arm-eabi/libc/usr/lib/libc.a(lib_a-strchr.o)
 .debug_abbrev  0x000000000000c987       0x14 /home/junghyun/topst/buildtools/gcc-linaro-7.2.1-2017.11-x86_64_arm-eabi/arm-eabi/libc/usr/lib/libc.a(lib_a-strcmp.o)
 .debug_abbrev  0x000000000000c99b      0x1b6 /home/junghyun/topst/buildtools/gcc-linaro-7.2.1-2017.11-x86_64_arm-eabi/arm-eabi/libc/usr/lib/libc.a(lib_a-strcpy.o)
 .debug_abbrev  0x000000000000cb51      0x1c5 /home/junghyun/topst/buildtools/gcc-linaro-7.2.1-2017.11-x86_64_arm-eabi/arm-eabi/libc/usr/lib/libc.a(lib_a-strlcpy.o)
 .debug_abbrev  0x000000000000cd16      0x205 /home/junghyun/topst/buildtools/gcc-linaro-7.2.1-2017.11-x86_64_arm-eabi/arm-eabi/libc/usr/lib/libc.a(lib_a-strncasecmp.o)
 .debug_abbrev  0x000000000000cf1b      0x270 /home/junghyun/topst/buildtools/gcc-linaro-7.2.1-2017.11-x86_64_arm-eabi/arm-eabi/libc/usr/lib/libc.a(lib_a-wctomb_r.o)
 .debug_abbrev  0x000000000000d18b      0x1d9 /home/junghyun/topst/buildtools/gcc-linaro-7.2.1-2017.11-x86_64_arm-eabi/arm-eabi/libc/usr/lib/libc.a(lib_a-ctype_.o)
 .debug_abbrev  0x000000000000d364      0x21a /home/junghyun/topst/buildtools/gcc-linaro-7.2.1-2017.11-x86_64_arm-eabi/arm-eabi/libc/usr/lib/libc.a(lib_a-getenv_r.o)
 .debug_abbrev  0x000000000000d57e       0x56 /home/junghyun/topst/buildtools/gcc-linaro-7.2.1-2017.11-x86_64_arm-eabi/arm-eabi/libc/usr/lib/libc.a(lib_a-environ.o)
 .debug_abbrev  0x000000000000d5d4      0x1d7 /home/junghyun/topst/buildtools/gcc-linaro-7.2.1-2017.11-x86_64_arm-eabi/arm-eabi/libc/usr/lib/libc.a(lib_a-envlock.o)
 .debug_abbrev  0x000000000000d7ab       0x14 /home/junghyun/topst/buildtools/gcc-linaro-7.2.1-2017.11-x86_64_arm-eabi/arm-eabi/libc/usr/lib/libgcc.a(_udivsi3.o)
 .debug_abbrev  0x000000000000d7bf       0x14 /home/junghyun/topst/buildtools/gcc-linaro-7.2.1-2017.11-x86_64_arm-eabi/arm-eabi/libc/usr/lib/libgcc.a(_dvmd_tls.o)
 .debug_abbrev  0x000000000000d7d3       0x14 /home/junghyun/topst/buildtools/gcc-linaro-7.2.1-2017.11-x86_64_arm-eabi/arm-eabi/libc/usr/lib/libgcc.a(_aeabi_uldivmod.o)
 .debug_abbrev  0x000000000000d7e7      0x21a /home/junghyun/topst/buildtools/gcc-linaro-7.2.1-2017.11-x86_64_arm-eabi/arm-eabi/libc/usr/lib/libgcc.a(_udivmoddi4.o)
 .debug_abbrev  0x000000000000da01       0x14 /home/junghyun/topst/buildtools/gcc-linaro-7.2.1-2017.11-x86_64_arm-eabi/arm-eabi/libc/usr/lib/libgcc.a(_clzdi2.o)
 .debug_abbrev  0x000000000000da15       0x14 /home/junghyun/topst/buildtools/gcc-linaro-7.2.1-2017.11-x86_64_arm-eabi/arm-eabi/libc/usr/lib/libgcc.a(_clzsi2.o)

.debug_loc      0x0000000000000000    0x1396d
 .debug_loc     0x0000000000000000       0xbc /home/junghyun/topst/cr5-bsp/sources/build/tcc805x/gcc/tcc805x-freertos-debug/obj/main.o
 .debug_loc     0x00000000000000bc      0x268 /home/junghyun/topst/cr5-bsp/sources/build/tcc805x/gcc/tcc805x-freertos-debug/obj/can_demo.o
 .debug_loc     0x0000000000000324      0xad4 /home/junghyun/topst/cr5-bsp/sources/build/tcc805x/gcc/tcc805x-freertos-debug/obj/console.o
 .debug_loc     0x0000000000000df8       0xd4 /home/junghyun/topst/cr5-bsp/sources/build/tcc805x/gcc/tcc805x-freertos-debug/obj/fwug.o
 .debug_loc     0x0000000000000ecc       0xf8 /home/junghyun/topst/cr5-bsp/sources/build/tcc805x/gcc/tcc805x-freertos-debug/obj/key_adc.o
 .debug_loc     0x0000000000000fc4      0x144 /home/junghyun/topst/cr5-bsp/sources/build/tcc805x/gcc/tcc805x-freertos-debug/obj/key_gpio.o
 .debug_loc     0x0000000000001108      0x168 /home/junghyun/topst/cr5-bsp/sources/build/tcc805x/gcc/tcc805x-freertos-debug/obj/key_i2c.o
 .debug_loc     0x0000000000001270      0x19c /home/junghyun/topst/cr5-bsp/sources/build/tcc805x/gcc/tcc805x-freertos-debug/obj/key.o
 .debug_loc     0x000000000000140c      0x124 /home/junghyun/topst/cr5-bsp/sources/build/tcc805x/gcc/tcc805x-freertos-debug/obj/system_monitoring.o
 .debug_loc     0x0000000000001530      0x15c /home/junghyun/topst/cr5-bsp/sources/build/tcc805x/gcc/tcc805x-freertos-debug/obj/bootctrl.o
 .debug_loc     0x000000000000168c       0x38 /home/junghyun/topst/cr5-bsp/sources/build/tcc805x/gcc/tcc805x-freertos-debug/obj/reset_demo.o
 .debug_loc     0x00000000000016c4       0xa8 /home/junghyun/topst/cr5-bsp/sources/build/tcc805x/gcc/tcc805x-freertos-debug/obj/dse_test.o
 .debug_loc     0x000000000000176c      0x1a0 /home/junghyun/topst/cr5-bsp/sources/build/tcc805x/gcc/tcc805x-freertos-debug/obj/fmu_test.o
 .debug_loc     0x000000000000190c       0x38 /home/junghyun/topst/cr5-bsp/sources/build/tcc805x/gcc/tcc805x-freertos-debug/obj/gdma_test.o
 .debug_loc     0x0000000000001944       0xa8 /home/junghyun/topst/cr5-bsp/sources/build/tcc805x/gcc/tcc805x-freertos-debug/obj/gic_test.o
 .debug_loc     0x00000000000019ec       0xa8 /home/junghyun/topst/cr5-bsp/sources/build/tcc805x/gcc/tcc805x-freertos-debug/obj/gpio_test.o
 .debug_loc     0x0000000000001a94      0x348 /home/junghyun/topst/cr5-bsp/sources/build/tcc805x/gcc/tcc805x-freertos-debug/obj/gpsb_test.o
 .debug_loc     0x0000000000001ddc      0x3b8 /home/junghyun/topst/cr5-bsp/sources/build/tcc805x/gcc/tcc805x-freertos-debug/obj/hsm_test.o
 .debug_loc     0x0000000000002194      0x224 /home/junghyun/topst/cr5-bsp/sources/build/tcc805x/gcc/tcc805x-freertos-debug/obj/i2c_test.o
 .debug_loc     0x00000000000023b8      0x100 /home/junghyun/topst/cr5-bsp/sources/build/tcc805x/gcc/tcc805x-freertos-debug/obj/ictc_test.o
 .debug_loc     0x00000000000024b8       0x64 /home/junghyun/topst/cr5-bsp/sources/build/tcc805x/gcc/tcc805x-freertos-debug/obj/lin_test.o
 .debug_loc     0x000000000000251c      0x144 /home/junghyun/topst/cr5-bsp/sources/build/tcc805x/gcc/tcc805x-freertos-debug/obj/pdm_test.o
 .debug_loc     0x0000000000002660      0x204 /home/junghyun/topst/cr5-bsp/sources/build/tcc805x/gcc/tcc805x-freertos-debug/obj/pmio_test.o
 .debug_loc     0x0000000000002864      0x3ac /home/junghyun/topst/cr5-bsp/sources/build/tcc805x/gcc/tcc805x-freertos-debug/obj/timer_test.o
 .debug_loc     0x0000000000002c10      0x368 /home/junghyun/topst/cr5-bsp/sources/build/tcc805x/gcc/tcc805x-freertos-debug/obj/wdt_test.o
 .debug_loc     0x0000000000002f78       0x64 /home/junghyun/topst/cr5-bsp/sources/build/tcc805x/gcc/tcc805x-freertos-debug/obj/mptool.o
 .debug_loc     0x0000000000002fdc      0x868 /home/junghyun/topst/cr5-bsp/sources/build/tcc805x/gcc/tcc805x-freertos-debug/obj/ipc_os.o
 .debug_loc     0x0000000000003844      0x36c /home/junghyun/topst/cr5-bsp/sources/build/tcc805x/gcc/tcc805x-freertos-debug/obj/ipc_buffer.o
 .debug_loc     0x0000000000003bb0      0x1c0 /home/junghyun/topst/cr5-bsp/sources/build/tcc805x/gcc/tcc805x-freertos-debug/obj/ipc_cmd.o
 .debug_loc     0x0000000000003d70      0x46c /home/junghyun/topst/cr5-bsp/sources/build/tcc805x/gcc/tcc805x-freertos-debug/obj/ipc_ctl.o
 .debug_loc     0x00000000000041dc      0x100 /home/junghyun/topst/cr5-bsp/sources/build/tcc805x/gcc/tcc805x-freertos-debug/obj/ipc_parser.o
 .debug_loc     0x00000000000042dc      0x194 /home/junghyun/topst/cr5-bsp/sources/build/tcc805x/gcc/tcc805x-freertos-debug/obj/ipc_api.o
 .debug_loc     0x0000000000004470      0x150 /home/junghyun/topst/cr5-bsp/sources/build/tcc805x/gcc/tcc805x-freertos-debug/obj/ipc.o
 .debug_loc     0x00000000000045c0      0x1c0 /home/junghyun/topst/cr5-bsp/sources/build/tcc805x/gcc/tcc805x-freertos-debug/obj/lin.o
 .debug_loc     0x0000000000004780      0x188 /home/junghyun/topst/cr5-bsp/sources/build/tcc805x/gcc/tcc805x-freertos-debug/obj/sdm.o
 .debug_loc     0x0000000000004908      0x310 /home/junghyun/topst/cr5-bsp/sources/build/tcc805x/gcc/tcc805x-freertos-debug/obj/hsm_manager.o
 .debug_loc     0x0000000000004c18      0x204 /home/junghyun/topst/cr5-bsp/sources/build/tcc805x/gcc/tcc805x-freertos-debug/obj/adc.o
 .debug_loc     0x0000000000004e1c      0x3bc /home/junghyun/topst/cr5-bsp/sources/build/tcc805x/gcc/tcc805x-freertos-debug/obj/can.o
 .debug_loc     0x00000000000051d8      0x6a0 /home/junghyun/topst/cr5-bsp/sources/build/tcc805x/gcc/tcc805x-freertos-debug/obj/can_drv.o
 .debug_loc     0x0000000000005878      0x34c /home/junghyun/topst/cr5-bsp/sources/build/tcc805x/gcc/tcc805x-freertos-debug/obj/can_msg.o
 .debug_loc     0x0000000000005bc4      0x87c /home/junghyun/topst/cr5-bsp/sources/build/tcc805x/gcc/tcc805x-freertos-debug/obj/can_porting.o
 .debug_loc     0x0000000000006440      0x640 /home/junghyun/topst/cr5-bsp/sources/build/tcc805x/gcc/tcc805x-freertos-debug/obj/clock_dev.o
 .debug_loc     0x0000000000006a80      0x180 /home/junghyun/topst/cr5-bsp/sources/build/tcc805x/gcc/tcc805x-freertos-debug/obj/debug.o
 .debug_loc     0x0000000000006c00       0xc8 /home/junghyun/topst/cr5-bsp/sources/build/tcc805x/gcc/tcc805x-freertos-debug/obj/bsp.o
 .debug_loc     0x0000000000006cc8      0x334 /home/junghyun/topst/cr5-bsp/sources/build/tcc805x/gcc/tcc805x-freertos-debug/obj/fmu.o
 .debug_loc     0x0000000000006ffc      0x338 /home/junghyun/topst/cr5-bsp/sources/build/tcc805x/gcc/tcc805x-freertos-debug/obj/gdma.o
 .debug_loc     0x0000000000007334      0x3b4 /home/junghyun/topst/cr5-bsp/sources/build/tcc805x/gcc/tcc805x-freertos-debug/obj/gic.o
 .debug_loc     0x00000000000076e8      0x124 /home/junghyun/topst/cr5-bsp/sources/build/tcc805x/gcc/tcc805x-freertos-debug/obj/gpio.o
 .debug_loc     0x000000000000780c      0x65c /home/junghyun/topst/cr5-bsp/sources/build/tcc805x/gcc/tcc805x-freertos-debug/obj/i2c.o
 .debug_loc     0x0000000000007e68      0x4f8 /home/junghyun/topst/cr5-bsp/sources/build/tcc805x/gcc/tcc805x-freertos-debug/obj/ictc.o
 .debug_loc     0x0000000000008360      0x714 /home/junghyun/topst/cr5-bsp/sources/build/tcc805x/gcc/tcc805x-freertos-debug/obj/mbox_phy.o
 .debug_loc     0x0000000000008a74      0x7b4 /home/junghyun/topst/cr5-bsp/sources/build/tcc805x/gcc/tcc805x-freertos-debug/obj/mbox_dev.o
 .debug_loc     0x0000000000009228      0x25c /home/junghyun/topst/cr5-bsp/sources/build/tcc805x/gcc/tcc805x-freertos-debug/obj/mbox.o
 .debug_loc     0x0000000000009484      0x174 /home/junghyun/topst/cr5-bsp/sources/build/tcc805x/gcc/tcc805x-freertos-debug/obj/mpu.o
 .debug_loc     0x00000000000095f8      0x614 /home/junghyun/topst/cr5-bsp/sources/build/tcc805x/gcc/tcc805x-freertos-debug/obj/pdm.o
 .debug_loc     0x0000000000009c0c      0x754 /home/junghyun/topst/cr5-bsp/sources/build/tcc805x/gcc/tcc805x-freertos-debug/obj/pmio_dev.o
 .debug_loc     0x000000000000a360      0xf08 /home/junghyun/topst/cr5-bsp/sources/build/tcc805x/gcc/tcc805x-freertos-debug/obj/gpsb.o
 .debug_loc     0x000000000000b268      0x1cc /home/junghyun/topst/cr5-bsp/sources/build/tcc805x/gcc/tcc805x-freertos-debug/obj/timer.o
 .debug_loc     0x000000000000b434      0x934 /home/junghyun/topst/cr5-bsp/sources/build/tcc805x/gcc/tcc805x-freertos-debug/obj/uart.o
 .debug_loc     0x000000000000bd68      0x440 /home/junghyun/topst/cr5-bsp/sources/build/tcc805x/gcc/tcc805x-freertos-debug/obj/udma.o
 .debug_loc     0x000000000000c1a8      0x264 /home/junghyun/topst/cr5-bsp/sources/build/tcc805x/gcc/tcc805x-freertos-debug/obj/wdt.o
 .debug_loc     0x000000000000c40c      0x124 /home/junghyun/topst/cr5-bsp/sources/build/tcc805x/gcc/tcc805x-freertos-debug/obj/dse.o
 .debug_loc     0x000000000000c530      0x1fc /home/junghyun/topst/cr5-bsp/sources/build/tcc805x/gcc/tcc805x-freertos-debug/obj/midf.o
 .debug_loc     0x000000000000c72c      0x1e4 /home/junghyun/topst/cr5-bsp/sources/build/tcc805x/gcc/tcc805x-freertos-debug/obj/pmu_reset.o
 .debug_loc     0x000000000000c910      0xd28 /home/junghyun/topst/cr5-bsp/sources/build/tcc805x/gcc/tcc805x-freertos-debug/obj/tasks.o
 .debug_loc     0x000000000000d638      0x154 /home/junghyun/topst/cr5-bsp/sources/build/tcc805x/gcc/tcc805x-freertos-debug/obj/list.o
 .debug_loc     0x000000000000d78c      0x9c8 /home/junghyun/topst/cr5-bsp/sources/build/tcc805x/gcc/tcc805x-freertos-debug/obj/queue.o
 .debug_loc     0x000000000000e154      0x274 /home/junghyun/topst/cr5-bsp/sources/build/tcc805x/gcc/tcc805x-freertos-debug/obj/event_groups.o
 .debug_loc     0x000000000000e3c8      0x5a8 /home/junghyun/topst/cr5-bsp/sources/build/tcc805x/gcc/tcc805x-freertos-debug/obj/timers.o
 .debug_loc     0x000000000000e970      0x500 /home/junghyun/topst/cr5-bsp/sources/build/tcc805x/gcc/tcc805x-freertos-debug/obj/stream_buffer.o
 .debug_loc     0x000000000000ee70      0x4c0 /home/junghyun/topst/cr5-bsp/sources/build/tcc805x/gcc/tcc805x-freertos-debug/obj/port.o
 .debug_loc     0x000000000000f330      0x1b8 /home/junghyun/topst/cr5-bsp/sources/build/tcc805x/gcc/tcc805x-freertos-debug/obj/heap_5.o
 .debug_loc     0x000000000000f4e8       0x44 /home/junghyun/topst/cr5-bsp/sources/build/tcc805x/gcc/tcc805x-freertos-debug/obj/sal_api.o
 .debug_loc     0x000000000000f52c      0x648 /home/junghyun/topst/cr5-bsp/sources/build/tcc805x/gcc/tcc805x-freertos-debug/obj/sal_freertos_impl.o
 .debug_loc     0x000000000000fb74       0x64 /home/junghyun/topst/cr5-bsp/sources/build/tcc805x/gcc/tcc805x-freertos-debug/obj/project_ipc.o
 .debug_loc     0x000000000000fbd8       0x9c /home/junghyun/topst/cr5-bsp/sources/build/tcc805x/gcc/tcc805x-freertos-debug/obj/project_i2c.o
 .debug_loc     0x000000000000fc74       0x63 /home/junghyun/topst/buildtools/gcc-linaro-7.2.1-2017.11-x86_64_arm-eabi/arm-eabi/libc/usr/lib/libc.a(lib_a-atoi.o)
 .debug_loc     0x000000000000fcd7       0x63 /home/junghyun/topst/buildtools/gcc-linaro-7.2.1-2017.11-x86_64_arm-eabi/arm-eabi/libc/usr/lib/libc.a(lib_a-atol.o)
 .debug_loc     0x000000000000fd3a      0x2b6 /home/junghyun/topst/buildtools/gcc-linaro-7.2.1-2017.11-x86_64_arm-eabi/arm-eabi/libc/usr/lib/libc.a(lib_a-memcmp.o)
 .debug_loc     0x000000000000fff0      0x1be /home/junghyun/topst/buildtools/gcc-linaro-7.2.1-2017.11-x86_64_arm-eabi/arm-eabi/libc/usr/lib/libc.a(lib_a-memcpy-stub.o)
 .debug_loc     0x00000000000101ae      0x200 /home/junghyun/topst/buildtools/gcc-linaro-7.2.1-2017.11-x86_64_arm-eabi/arm-eabi/libc/usr/lib/libc.a(lib_a-memset.o)
 .debug_loc     0x00000000000103ae       0x21 /home/junghyun/topst/buildtools/gcc-linaro-7.2.1-2017.11-x86_64_arm-eabi/arm-eabi/libc/usr/lib/libc.a(lib_a-strlen-stub.o)
 .debug_loc     0x00000000000103cf      0x150 /home/junghyun/topst/buildtools/gcc-linaro-7.2.1-2017.11-x86_64_arm-eabi/arm-eabi/libc/usr/lib/libc.a(lib_a-strncmp.o)
 .debug_loc     0x000000000001051f      0x128 /home/junghyun/topst/buildtools/gcc-linaro-7.2.1-2017.11-x86_64_arm-eabi/arm-eabi/libc/usr/lib/libc.a(lib_a-strncpy.o)
 .debug_loc     0x0000000000010647      0x14f /home/junghyun/topst/buildtools/gcc-linaro-7.2.1-2017.11-x86_64_arm-eabi/arm-eabi/libc/usr/lib/libc.a(lib_a-strnlen.o)
 .debug_loc     0x0000000000010796      0x49e /home/junghyun/topst/buildtools/gcc-linaro-7.2.1-2017.11-x86_64_arm-eabi/arm-eabi/libc/usr/lib/libc.a(lib_a-strtol.o)
 .debug_loc     0x0000000000010c34      0x496 /home/junghyun/topst/buildtools/gcc-linaro-7.2.1-2017.11-x86_64_arm-eabi/arm-eabi/libc/usr/lib/libc.a(lib_a-strtoul.o)
 .debug_loc     0x00000000000110ca      0x9e8 /home/junghyun/topst/buildtools/gcc-linaro-7.2.1-2017.11-x86_64_arm-eabi/arm-eabi/libc/usr/lib/libc.a(lib_a-locale.o)
 .debug_loc     0x0000000000011ab2      0xc4f /home/junghyun/topst/buildtools/gcc-linaro-7.2.1-2017.11-x86_64_arm-eabi/arm-eabi/libc/usr/lib/libc.a(lib_a-mbtowc_r.o)
 .debug_loc     0x0000000000012701      0x130 /home/junghyun/topst/buildtools/gcc-linaro-7.2.1-2017.11-x86_64_arm-eabi/arm-eabi/libc/usr/lib/libc.a(lib_a-strcasecmp.o)
 .debug_loc     0x0000000000012831       0xa0 /home/junghyun/topst/buildtools/gcc-linaro-7.2.1-2017.11-x86_64_arm-eabi/arm-eabi/libc/usr/lib/libc.a(lib_a-strcat.o)
 .debug_loc     0x00000000000128d1      0x21f /home/junghyun/topst/buildtools/gcc-linaro-7.2.1-2017.11-x86_64_arm-eabi/arm-eabi/libc/usr/lib/libc.a(lib_a-strchr.o)
 .debug_loc     0x0000000000012af0       0x21 /home/junghyun/topst/buildtools/gcc-linaro-7.2.1-2017.11-x86_64_arm-eabi/arm-eabi/libc/usr/lib/libc.a(lib_a-strcpy.o)
 .debug_loc     0x0000000000012b11      0x10b /home/junghyun/topst/buildtools/gcc-linaro-7.2.1-2017.11-x86_64_arm-eabi/arm-eabi/libc/usr/lib/libc.a(lib_a-strlcpy.o)
 .debug_loc     0x0000000000012c1c      0x196 /home/junghyun/topst/buildtools/gcc-linaro-7.2.1-2017.11-x86_64_arm-eabi/arm-eabi/libc/usr/lib/libc.a(lib_a-strncasecmp.o)
 .debug_loc     0x0000000000012db2      0x86a /home/junghyun/topst/buildtools/gcc-linaro-7.2.1-2017.11-x86_64_arm-eabi/arm-eabi/libc/usr/lib/libc.a(lib_a-wctomb_r.o)
 .debug_loc     0x000000000001361c      0x1a6 /home/junghyun/topst/buildtools/gcc-linaro-7.2.1-2017.11-x86_64_arm-eabi/arm-eabi/libc/usr/lib/libc.a(lib_a-getenv_r.o)
 .debug_loc     0x00000000000137c2      0x1ab /home/junghyun/topst/buildtools/gcc-linaro-7.2.1-2017.11-x86_64_arm-eabi/arm-eabi/libc/usr/lib/libgcc.a(_udivmoddi4.o)

.debug_aranges  0x0000000000000000      0xeb0
 .debug_aranges
                0x0000000000000000       0x20 /home/junghyun/topst/cr5-bsp/sources/build/tcc805x/gcc/tcc805x-freertos-debug/obj/main.o
 .debug_aranges
                0x0000000000000020       0x20 /home/junghyun/topst/cr5-bsp/sources/build/tcc805x/gcc/tcc805x-freertos-debug/obj/can_demo.o
 .debug_aranges
                0x0000000000000040       0x20 /home/junghyun/topst/cr5-bsp/sources/build/tcc805x/gcc/tcc805x-freertos-debug/obj/console.o
 .debug_aranges
                0x0000000000000060       0x20 /home/junghyun/topst/cr5-bsp/sources/build/tcc805x/gcc/tcc805x-freertos-debug/obj/fwug.o
 .debug_aranges
                0x0000000000000080       0x20 /home/junghyun/topst/cr5-bsp/sources/build/tcc805x/gcc/tcc805x-freertos-debug/obj/key_adc.o
 .debug_aranges
                0x00000000000000a0       0x20 /home/junghyun/topst/cr5-bsp/sources/build/tcc805x/gcc/tcc805x-freertos-debug/obj/key_gpio.o
 .debug_aranges
                0x00000000000000c0       0x20 /home/junghyun/topst/cr5-bsp/sources/build/tcc805x/gcc/tcc805x-freertos-debug/obj/key_i2c.o
 .debug_aranges
                0x00000000000000e0       0x20 /home/junghyun/topst/cr5-bsp/sources/build/tcc805x/gcc/tcc805x-freertos-debug/obj/key.o
 .debug_aranges
                0x0000000000000100       0x20 /home/junghyun/topst/cr5-bsp/sources/build/tcc805x/gcc/tcc805x-freertos-debug/obj/system_monitoring.o
 .debug_aranges
                0x0000000000000120       0x20 /home/junghyun/topst/cr5-bsp/sources/build/tcc805x/gcc/tcc805x-freertos-debug/obj/bootctrl.o
 .debug_aranges
                0x0000000000000140       0x20 /home/junghyun/topst/cr5-bsp/sources/build/tcc805x/gcc/tcc805x-freertos-debug/obj/reset_demo.o
 .debug_aranges
                0x0000000000000160       0x18 /home/junghyun/topst/cr5-bsp/sources/build/tcc805x/gcc/tcc805x-freertos-debug/obj/adc_test.o
 .debug_aranges
                0x0000000000000178       0x20 /home/junghyun/topst/cr5-bsp/sources/build/tcc805x/gcc/tcc805x-freertos-debug/obj/dse_test.o
 .debug_aranges
                0x0000000000000198       0x20 /home/junghyun/topst/cr5-bsp/sources/build/tcc805x/gcc/tcc805x-freertos-debug/obj/fmu_test.o
 .debug_aranges
                0x00000000000001b8       0x20 /home/junghyun/topst/cr5-bsp/sources/build/tcc805x/gcc/tcc805x-freertos-debug/obj/gdma_test.o
 .debug_aranges
                0x00000000000001d8       0x20 /home/junghyun/topst/cr5-bsp/sources/build/tcc805x/gcc/tcc805x-freertos-debug/obj/gic_test.o
 .debug_aranges
                0x00000000000001f8       0x20 /home/junghyun/topst/cr5-bsp/sources/build/tcc805x/gcc/tcc805x-freertos-debug/obj/gpio_test.o
 .debug_aranges
                0x0000000000000218       0x20 /home/junghyun/topst/cr5-bsp/sources/build/tcc805x/gcc/tcc805x-freertos-debug/obj/gpsb_test.o
 .debug_aranges
                0x0000000000000238       0x20 /home/junghyun/topst/cr5-bsp/sources/build/tcc805x/gcc/tcc805x-freertos-debug/obj/hsm_test.o
 .debug_aranges
                0x0000000000000258       0x20 /home/junghyun/topst/cr5-bsp/sources/build/tcc805x/gcc/tcc805x-freertos-debug/obj/i2c_test.o
 .debug_aranges
                0x0000000000000278       0x20 /home/junghyun/topst/cr5-bsp/sources/build/tcc805x/gcc/tcc805x-freertos-debug/obj/ictc_test.o
 .debug_aranges
                0x0000000000000298       0x20 /home/junghyun/topst/cr5-bsp/sources/build/tcc805x/gcc/tcc805x-freertos-debug/obj/lin_test.o
 .debug_aranges
                0x00000000000002b8       0x20 /home/junghyun/topst/cr5-bsp/sources/build/tcc805x/gcc/tcc805x-freertos-debug/obj/pdm_test.o
 .debug_aranges
                0x00000000000002d8       0x20 /home/junghyun/topst/cr5-bsp/sources/build/tcc805x/gcc/tcc805x-freertos-debug/obj/pmio_test.o
 .debug_aranges
                0x00000000000002f8       0x20 /home/junghyun/topst/cr5-bsp/sources/build/tcc805x/gcc/tcc805x-freertos-debug/obj/timer_test.o
 .debug_aranges
                0x0000000000000318       0x20 /home/junghyun/topst/cr5-bsp/sources/build/tcc805x/gcc/tcc805x-freertos-debug/obj/wdt_test.o
 .debug_aranges
                0x0000000000000338       0x20 /home/junghyun/topst/cr5-bsp/sources/build/tcc805x/gcc/tcc805x-freertos-debug/obj/mptool.o
 .debug_aranges
                0x0000000000000358       0x20 /home/junghyun/topst/cr5-bsp/sources/build/tcc805x/gcc/tcc805x-freertos-debug/obj/ipc_os.o
 .debug_aranges
                0x0000000000000378       0x20 /home/junghyun/topst/cr5-bsp/sources/build/tcc805x/gcc/tcc805x-freertos-debug/obj/ipc_buffer.o
 .debug_aranges
                0x0000000000000398       0x20 /home/junghyun/topst/cr5-bsp/sources/build/tcc805x/gcc/tcc805x-freertos-debug/obj/ipc_cmd.o
 .debug_aranges
                0x00000000000003b8       0x20 /home/junghyun/topst/cr5-bsp/sources/build/tcc805x/gcc/tcc805x-freertos-debug/obj/ipc_ctl.o
 .debug_aranges
                0x00000000000003d8       0x20 /home/junghyun/topst/cr5-bsp/sources/build/tcc805x/gcc/tcc805x-freertos-debug/obj/ipc_parser.o
 .debug_aranges
                0x00000000000003f8       0x20 /home/junghyun/topst/cr5-bsp/sources/build/tcc805x/gcc/tcc805x-freertos-debug/obj/ipc_api.o
 .debug_aranges
                0x0000000000000418       0x20 /home/junghyun/topst/cr5-bsp/sources/build/tcc805x/gcc/tcc805x-freertos-debug/obj/ipc.o
 .debug_aranges
                0x0000000000000438       0x20 /home/junghyun/topst/cr5-bsp/sources/build/tcc805x/gcc/tcc805x-freertos-debug/obj/lin.o
 .debug_aranges
                0x0000000000000458       0x20 /home/junghyun/topst/cr5-bsp/sources/build/tcc805x/gcc/tcc805x-freertos-debug/obj/sdm.o
 .debug_aranges
                0x0000000000000478       0x20 /home/junghyun/topst/cr5-bsp/sources/build/tcc805x/gcc/tcc805x-freertos-debug/obj/hsm_manager.o
 .debug_aranges
                0x0000000000000498       0x20 /home/junghyun/topst/cr5-bsp/sources/build/tcc805x/gcc/tcc805x-freertos-debug/obj/adc.o
 .debug_aranges
                0x00000000000004b8       0x20 /home/junghyun/topst/cr5-bsp/sources/build/tcc805x/gcc/tcc805x-freertos-debug/obj/can.o
 .debug_aranges
                0x00000000000004d8       0x20 /home/junghyun/topst/cr5-bsp/sources/build/tcc805x/gcc/tcc805x-freertos-debug/obj/can_drv.o
 .debug_aranges
                0x00000000000004f8       0x20 /home/junghyun/topst/cr5-bsp/sources/build/tcc805x/gcc/tcc805x-freertos-debug/obj/can_msg.o
 .debug_aranges
                0x0000000000000518       0x18 /home/junghyun/topst/cr5-bsp/sources/build/tcc805x/gcc/tcc805x-freertos-debug/obj/can_par.o
 .debug_aranges
                0x0000000000000530       0x20 /home/junghyun/topst/cr5-bsp/sources/build/tcc805x/gcc/tcc805x-freertos-debug/obj/can_porting.o
 .debug_aranges
                0x0000000000000550       0x20 /home/junghyun/topst/cr5-bsp/sources/build/tcc805x/gcc/tcc805x-freertos-debug/obj/clock_dev.o
 .debug_aranges
                0x0000000000000570       0x20 /home/junghyun/topst/cr5-bsp/sources/build/tcc805x/gcc/tcc805x-freertos-debug/obj/debug.o
 .debug_aranges
                0x0000000000000590       0x20 /home/junghyun/topst/cr5-bsp/sources/build/tcc805x/gcc/tcc805x-freertos-debug/obj/bsp.o
 .debug_aranges
                0x00000000000005b0       0x20 /home/junghyun/topst/cr5-bsp/sources/build/tcc805x/gcc/tcc805x-freertos-debug/obj/fmu.o
 .debug_aranges
                0x00000000000005d0       0x20 /home/junghyun/topst/cr5-bsp/sources/build/tcc805x/gcc/tcc805x-freertos-debug/obj/gdma.o
 .debug_aranges
                0x00000000000005f0       0x20 /home/junghyun/topst/cr5-bsp/sources/build/tcc805x/gcc/tcc805x-freertos-debug/obj/gic.o
 .debug_aranges
                0x0000000000000610       0x20 /home/junghyun/topst/cr5-bsp/sources/build/tcc805x/gcc/tcc805x-freertos-debug/obj/gpio.o
 .debug_aranges
                0x0000000000000630       0x20 /home/junghyun/topst/cr5-bsp/sources/build/tcc805x/gcc/tcc805x-freertos-debug/obj/i2c.o
 .debug_aranges
                0x0000000000000650       0x18 /home/junghyun/topst/cr5-bsp/sources/build/tcc805x/gcc/tcc805x-freertos-debug/obj/i2c_reg.o
 .debug_aranges
                0x0000000000000668       0x20 /home/junghyun/topst/cr5-bsp/sources/build/tcc805x/gcc/tcc805x-freertos-debug/obj/ictc.o
 .debug_aranges
                0x0000000000000688       0x20 /home/junghyun/topst/cr5-bsp/sources/build/tcc805x/gcc/tcc805x-freertos-debug/obj/mbox_phy.o
 .debug_aranges
                0x00000000000006a8       0x20 /home/junghyun/topst/cr5-bsp/sources/build/tcc805x/gcc/tcc805x-freertos-debug/obj/mbox_dev.o
 .debug_aranges
                0x00000000000006c8       0x20 /home/junghyun/topst/cr5-bsp/sources/build/tcc805x/gcc/tcc805x-freertos-debug/obj/mbox.o
 .debug_aranges
                0x00000000000006e8       0x20 /home/junghyun/topst/cr5-bsp/sources/build/tcc805x/gcc/tcc805x-freertos-debug/obj/mpu.o
 .debug_aranges
                0x0000000000000708       0x20 /home/junghyun/topst/cr5-bsp/sources/build/tcc805x/gcc/tcc805x-freertos-debug/obj/pdm.o
 .debug_aranges
                0x0000000000000728       0x20 /home/junghyun/topst/cr5-bsp/sources/build/tcc805x/gcc/tcc805x-freertos-debug/obj/pmio_dev.o
 .debug_aranges
                0x0000000000000748       0x20 /home/junghyun/topst/cr5-bsp/sources/build/tcc805x/gcc/tcc805x-freertos-debug/obj/gpsb.o
 .debug_aranges
                0x0000000000000768       0x18 /home/junghyun/topst/cr5-bsp/sources/build/tcc805x/gcc/tcc805x-freertos-debug/obj/gpsb_reg.o
 .debug_aranges
                0x0000000000000780       0x20 /home/junghyun/topst/cr5-bsp/sources/build/tcc805x/gcc/tcc805x-freertos-debug/obj/timer.o
 .debug_aranges
                0x00000000000007a0       0x20 /home/junghyun/topst/cr5-bsp/sources/build/tcc805x/gcc/tcc805x-freertos-debug/obj/uart.o
 .debug_aranges
                0x00000000000007c0       0x20 /home/junghyun/topst/cr5-bsp/sources/build/tcc805x/gcc/tcc805x-freertos-debug/obj/udma.o
 .debug_aranges
                0x00000000000007e0       0x20 /home/junghyun/topst/cr5-bsp/sources/build/tcc805x/gcc/tcc805x-freertos-debug/obj/wdt.o
 .debug_aranges
                0x0000000000000800       0x20 /home/junghyun/topst/cr5-bsp/sources/build/tcc805x/gcc/tcc805x-freertos-debug/obj/dse.o
 .debug_aranges
                0x0000000000000820       0x20 /home/junghyun/topst/cr5-bsp/sources/build/tcc805x/gcc/tcc805x-freertos-debug/obj/midf.o
 .debug_aranges
                0x0000000000000840       0x20 /home/junghyun/topst/cr5-bsp/sources/build/tcc805x/gcc/tcc805x-freertos-debug/obj/pmu_reset.o
 .debug_aranges
                0x0000000000000860       0x20 /home/junghyun/topst/cr5-bsp/sources/build/tcc805x/gcc/tcc805x-freertos-debug/obj/tasks.o
 .debug_aranges
                0x0000000000000880       0x20 /home/junghyun/topst/cr5-bsp/sources/build/tcc805x/gcc/tcc805x-freertos-debug/obj/list.o
 .debug_aranges
                0x00000000000008a0       0x20 /home/junghyun/topst/cr5-bsp/sources/build/tcc805x/gcc/tcc805x-freertos-debug/obj/queue.o
 .debug_aranges
                0x00000000000008c0       0x20 /home/junghyun/topst/cr5-bsp/sources/build/tcc805x/gcc/tcc805x-freertos-debug/obj/event_groups.o
 .debug_aranges
                0x00000000000008e0       0x20 /home/junghyun/topst/cr5-bsp/sources/build/tcc805x/gcc/tcc805x-freertos-debug/obj/timers.o
 .debug_aranges
                0x0000000000000900       0x20 /home/junghyun/topst/cr5-bsp/sources/build/tcc805x/gcc/tcc805x-freertos-debug/obj/stream_buffer.o
 .debug_aranges
                0x0000000000000920       0x20 /home/junghyun/topst/cr5-bsp/sources/build/tcc805x/gcc/tcc805x-freertos-debug/obj/port.o
 .debug_aranges
                0x0000000000000940       0x20 /home/junghyun/topst/cr5-bsp/sources/build/tcc805x/gcc/tcc805x-freertos-debug/obj/heap_5.o
 .debug_aranges
                0x0000000000000960       0x20 /home/junghyun/topst/cr5-bsp/sources/build/tcc805x/gcc/tcc805x-freertos-debug/obj/sal_api.o
 .debug_aranges
                0x0000000000000980       0x20 /home/junghyun/topst/cr5-bsp/sources/build/tcc805x/gcc/tcc805x-freertos-debug/obj/sal_freertos_impl.o
 .debug_aranges
                0x00000000000009a0       0x20 /home/junghyun/topst/cr5-bsp/sources/build/tcc805x/gcc/tcc805x-freertos-debug/obj/project_ipc.o
 .debug_aranges
                0x00000000000009c0       0x20 /home/junghyun/topst/cr5-bsp/sources/build/tcc805x/gcc/tcc805x-freertos-debug/obj/project_i2c.o
 .debug_aranges
                0x00000000000009e0       0x20 /home/junghyun/topst/cr5-bsp/sources/build/tcc805x/gcc/tcc805x-freertos-debug/obj/startup.o
 .debug_aranges
                0x0000000000000a00       0x20 /home/junghyun/topst/cr5-bsp/sources/build/tcc805x/gcc/tcc805x-freertos-debug/obj/vector.o
 .debug_aranges
                0x0000000000000a20       0x20 /home/junghyun/topst/cr5-bsp/sources/build/tcc805x/gcc/tcc805x-freertos-debug/obj/vfp_init.o
 .debug_aranges
                0x0000000000000a40       0x20 /home/junghyun/topst/cr5-bsp/sources/build/tcc805x/gcc/tcc805x-freertos-debug/obj/arm_a.o
 .debug_aranges
                0x0000000000000a60       0x20 /home/junghyun/topst/cr5-bsp/sources/build/tcc805x/gcc/tcc805x-freertos-debug/obj/portASM.o
 .debug_aranges
                0x0000000000000a80       0x20 /home/junghyun/topst/cr5-bsp/sources/build/tcc805x/gcc/tcc805x-freertos-debug/obj/freertos.o
 .debug_aranges
                0x0000000000000aa0       0x20 /home/junghyun/topst/cr5-bsp/sources/build/tcc805x/gcc/tcc805x-freertos-debug/obj/sal.o
 .debug_aranges
                0x0000000000000ac0       0x20 /home/junghyun/topst/buildtools/gcc-linaro-7.2.1-2017.11-x86_64_arm-eabi/arm-eabi/libc/usr/lib/libc.a(lib_a-atoi.o)
 .debug_aranges
                0x0000000000000ae0       0x20 /home/junghyun/topst/buildtools/gcc-linaro-7.2.1-2017.11-x86_64_arm-eabi/arm-eabi/libc/usr/lib/libc.a(lib_a-atol.o)
 .debug_aranges
                0x0000000000000b00       0x20 /home/junghyun/topst/buildtools/gcc-linaro-7.2.1-2017.11-x86_64_arm-eabi/arm-eabi/libc/usr/lib/libc.a(lib_a-memcmp.o)
 .debug_aranges
                0x0000000000000b20       0x20 /home/junghyun/topst/buildtools/gcc-linaro-7.2.1-2017.11-x86_64_arm-eabi/arm-eabi/libc/usr/lib/libc.a(lib_a-memcpy-stub.o)
 .debug_aranges
                0x0000000000000b40       0x20 /home/junghyun/topst/buildtools/gcc-linaro-7.2.1-2017.11-x86_64_arm-eabi/arm-eabi/libc/usr/lib/libc.a(lib_a-memset.o)
 .debug_aranges
                0x0000000000000b60       0x20 /home/junghyun/topst/buildtools/gcc-linaro-7.2.1-2017.11-x86_64_arm-eabi/arm-eabi/libc/usr/lib/libc.a(lib_a-strlen-stub.o)
 .debug_aranges
                0x0000000000000b80       0x20 /home/junghyun/topst/buildtools/gcc-linaro-7.2.1-2017.11-x86_64_arm-eabi/arm-eabi/libc/usr/lib/libc.a(lib_a-strncmp.o)
 .debug_aranges
                0x0000000000000ba0       0x20 /home/junghyun/topst/buildtools/gcc-linaro-7.2.1-2017.11-x86_64_arm-eabi/arm-eabi/libc/usr/lib/libc.a(lib_a-strncpy.o)
 .debug_aranges
                0x0000000000000bc0       0x20 /home/junghyun/topst/buildtools/gcc-linaro-7.2.1-2017.11-x86_64_arm-eabi/arm-eabi/libc/usr/lib/libc.a(lib_a-strnlen.o)
 .debug_aranges
                0x0000000000000be0       0x20 /home/junghyun/topst/buildtools/gcc-linaro-7.2.1-2017.11-x86_64_arm-eabi/arm-eabi/libc/usr/lib/libc.a(lib_a-strtol.o)
 .debug_aranges
                0x0000000000000c00       0x20 /home/junghyun/topst/buildtools/gcc-linaro-7.2.1-2017.11-x86_64_arm-eabi/arm-eabi/libc/usr/lib/libc.a(lib_a-strtoul.o)
 .debug_aranges
                0x0000000000000c20       0x18 /home/junghyun/topst/buildtools/gcc-linaro-7.2.1-2017.11-x86_64_arm-eabi/arm-eabi/libc/usr/lib/libc.a(lib_a-impure.o)
 .debug_aranges
                0x0000000000000c38       0x20 /home/junghyun/topst/buildtools/gcc-linaro-7.2.1-2017.11-x86_64_arm-eabi/arm-eabi/libc/usr/lib/libc.a(lib_a-locale.o)
 .debug_aranges
                0x0000000000000c58       0x20 /home/junghyun/topst/buildtools/gcc-linaro-7.2.1-2017.11-x86_64_arm-eabi/arm-eabi/libc/usr/lib/libc.a(lib_a-mbtowc_r.o)
 .debug_aranges
                0x0000000000000c78       0x20 /home/junghyun/topst/buildtools/gcc-linaro-7.2.1-2017.11-x86_64_arm-eabi/arm-eabi/libc/usr/lib/libc.a(lib_a-strcasecmp.o)
 .debug_aranges
                0x0000000000000c98       0x20 /home/junghyun/topst/buildtools/gcc-linaro-7.2.1-2017.11-x86_64_arm-eabi/arm-eabi/libc/usr/lib/libc.a(lib_a-strcat.o)
 .debug_aranges
                0x0000000000000cb8       0x20 /home/junghyun/topst/buildtools/gcc-linaro-7.2.1-2017.11-x86_64_arm-eabi/arm-eabi/libc/usr/lib/libc.a(lib_a-strchr.o)
 .debug_aranges
                0x0000000000000cd8       0x20 /home/junghyun/topst/buildtools/gcc-linaro-7.2.1-2017.11-x86_64_arm-eabi/arm-eabi/libc/usr/lib/libc.a(lib_a-strcmp.o)
 .debug_aranges
                0x0000000000000cf8       0x20 /home/junghyun/topst/buildtools/gcc-linaro-7.2.1-2017.11-x86_64_arm-eabi/arm-eabi/libc/usr/lib/libc.a(lib_a-strcpy.o)
 .debug_aranges
                0x0000000000000d18       0x20 /home/junghyun/topst/buildtools/gcc-linaro-7.2.1-2017.11-x86_64_arm-eabi/arm-eabi/libc/usr/lib/libc.a(lib_a-strlcpy.o)
 .debug_aranges
                0x0000000000000d38       0x20 /home/junghyun/topst/buildtools/gcc-linaro-7.2.1-2017.11-x86_64_arm-eabi/arm-eabi/libc/usr/lib/libc.a(lib_a-strncasecmp.o)
 .debug_aranges
                0x0000000000000d58       0x20 /home/junghyun/topst/buildtools/gcc-linaro-7.2.1-2017.11-x86_64_arm-eabi/arm-eabi/libc/usr/lib/libc.a(lib_a-wctomb_r.o)
 .debug_aranges
                0x0000000000000d78       0x20 /home/junghyun/topst/buildtools/gcc-linaro-7.2.1-2017.11-x86_64_arm-eabi/arm-eabi/libc/usr/lib/libc.a(lib_a-ctype_.o)
 .debug_aranges
                0x0000000000000d98       0x20 /home/junghyun/topst/buildtools/gcc-linaro-7.2.1-2017.11-x86_64_arm-eabi/arm-eabi/libc/usr/lib/libc.a(lib_a-getenv_r.o)
 .debug_aranges
                0x0000000000000db8       0x18 /home/junghyun/topst/buildtools/gcc-linaro-7.2.1-2017.11-x86_64_arm-eabi/arm-eabi/libc/usr/lib/libc.a(lib_a-environ.o)
 .debug_aranges
                0x0000000000000dd0       0x20 /home/junghyun/topst/buildtools/gcc-linaro-7.2.1-2017.11-x86_64_arm-eabi/arm-eabi/libc/usr/lib/libc.a(lib_a-envlock.o)
 .debug_aranges
                0x0000000000000df0       0x20 /home/junghyun/topst/buildtools/gcc-linaro-7.2.1-2017.11-x86_64_arm-eabi/arm-eabi/libc/usr/lib/libgcc.a(_udivsi3.o)
 .debug_aranges
                0x0000000000000e10       0x20 /home/junghyun/topst/buildtools/gcc-linaro-7.2.1-2017.11-x86_64_arm-eabi/arm-eabi/libc/usr/lib/libgcc.a(_dvmd_tls.o)
 .debug_aranges
                0x0000000000000e30       0x20 /home/junghyun/topst/buildtools/gcc-linaro-7.2.1-2017.11-x86_64_arm-eabi/arm-eabi/libc/usr/lib/libgcc.a(_aeabi_uldivmod.o)
 .debug_aranges
                0x0000000000000e50       0x20 /home/junghyun/topst/buildtools/gcc-linaro-7.2.1-2017.11-x86_64_arm-eabi/arm-eabi/libc/usr/lib/libgcc.a(_udivmoddi4.o)
 .debug_aranges
                0x0000000000000e70       0x20 /home/junghyun/topst/buildtools/gcc-linaro-7.2.1-2017.11-x86_64_arm-eabi/arm-eabi/libc/usr/lib/libgcc.a(_clzdi2.o)
 .debug_aranges
                0x0000000000000e90       0x20 /home/junghyun/topst/buildtools/gcc-linaro-7.2.1-2017.11-x86_64_arm-eabi/arm-eabi/libc/usr/lib/libgcc.a(_clzsi2.o)

.debug_line     0x0000000000000000    0x1919e
 .debug_line    0x0000000000000000      0x1a6 /home/junghyun/topst/cr5-bsp/sources/build/tcc805x/gcc/tcc805x-freertos-debug/obj/main.o
 .debug_line    0x00000000000001a6      0x4da /home/junghyun/topst/cr5-bsp/sources/build/tcc805x/gcc/tcc805x-freertos-debug/obj/can_demo.o
 .debug_line    0x0000000000000680      0x9d1 /home/junghyun/topst/cr5-bsp/sources/build/tcc805x/gcc/tcc805x-freertos-debug/obj/console.o
 .debug_line    0x0000000000001051      0x27e /home/junghyun/topst/cr5-bsp/sources/build/tcc805x/gcc/tcc805x-freertos-debug/obj/fwug.o
 .debug_line    0x00000000000012cf      0x2af /home/junghyun/topst/cr5-bsp/sources/build/tcc805x/gcc/tcc805x-freertos-debug/obj/key_adc.o
 .debug_line    0x000000000000157e      0x1a8 /home/junghyun/topst/cr5-bsp/sources/build/tcc805x/gcc/tcc805x-freertos-debug/obj/key_gpio.o
 .debug_line    0x0000000000001726      0x241 /home/junghyun/topst/cr5-bsp/sources/build/tcc805x/gcc/tcc805x-freertos-debug/obj/key_i2c.o
 .debug_line    0x0000000000001967      0x286 /home/junghyun/topst/cr5-bsp/sources/build/tcc805x/gcc/tcc805x-freertos-debug/obj/key.o
 .debug_line    0x0000000000001bed      0x2d8 /home/junghyun/topst/cr5-bsp/sources/build/tcc805x/gcc/tcc805x-freertos-debug/obj/system_monitoring.o
 .debug_line    0x0000000000001ec5      0x1bd /home/junghyun/topst/cr5-bsp/sources/build/tcc805x/gcc/tcc805x-freertos-debug/obj/bootctrl.o
 .debug_line    0x0000000000002082      0x153 /home/junghyun/topst/cr5-bsp/sources/build/tcc805x/gcc/tcc805x-freertos-debug/obj/reset_demo.o
 .debug_line    0x00000000000021d5       0xa3 /home/junghyun/topst/cr5-bsp/sources/build/tcc805x/gcc/tcc805x-freertos-debug/obj/adc_test.o
 .debug_line    0x0000000000002278      0x255 /home/junghyun/topst/cr5-bsp/sources/build/tcc805x/gcc/tcc805x-freertos-debug/obj/dse_test.o
 .debug_line    0x00000000000024cd      0x1e9 /home/junghyun/topst/cr5-bsp/sources/build/tcc805x/gcc/tcc805x-freertos-debug/obj/fmu_test.o
 .debug_line    0x00000000000026b6      0x1cc /home/junghyun/topst/cr5-bsp/sources/build/tcc805x/gcc/tcc805x-freertos-debug/obj/gdma_test.o
 .debug_line    0x0000000000002882      0x1e5 /home/junghyun/topst/cr5-bsp/sources/build/tcc805x/gcc/tcc805x-freertos-debug/obj/gic_test.o
 .debug_line    0x0000000000002a67      0x332 /home/junghyun/topst/cr5-bsp/sources/build/tcc805x/gcc/tcc805x-freertos-debug/obj/gpio_test.o
 .debug_line    0x0000000000002d99      0x605 /home/junghyun/topst/cr5-bsp/sources/build/tcc805x/gcc/tcc805x-freertos-debug/obj/gpsb_test.o
 .debug_line    0x000000000000339e      0x81e /home/junghyun/topst/cr5-bsp/sources/build/tcc805x/gcc/tcc805x-freertos-debug/obj/hsm_test.o
 .debug_line    0x0000000000003bbc      0x268 /home/junghyun/topst/cr5-bsp/sources/build/tcc805x/gcc/tcc805x-freertos-debug/obj/i2c_test.o
 .debug_line    0x0000000000003e24      0x191 /home/junghyun/topst/cr5-bsp/sources/build/tcc805x/gcc/tcc805x-freertos-debug/obj/ictc_test.o
 .debug_line    0x0000000000003fb5      0x1b4 /home/junghyun/topst/cr5-bsp/sources/build/tcc805x/gcc/tcc805x-freertos-debug/obj/lin_test.o
 .debug_line    0x0000000000004169      0x1d4 /home/junghyun/topst/cr5-bsp/sources/build/tcc805x/gcc/tcc805x-freertos-debug/obj/pdm_test.o
 .debug_line    0x000000000000433d      0x356 /home/junghyun/topst/cr5-bsp/sources/build/tcc805x/gcc/tcc805x-freertos-debug/obj/pmio_test.o
 .debug_line    0x0000000000004693      0x422 /home/junghyun/topst/cr5-bsp/sources/build/tcc805x/gcc/tcc805x-freertos-debug/obj/timer_test.o
 .debug_line    0x0000000000004ab5      0x320 /home/junghyun/topst/cr5-bsp/sources/build/tcc805x/gcc/tcc805x-freertos-debug/obj/wdt_test.o
 .debug_line    0x0000000000004dd5      0x143 /home/junghyun/topst/cr5-bsp/sources/build/tcc805x/gcc/tcc805x-freertos-debug/obj/mptool.o
 .debug_line    0x0000000000004f18      0x47e /home/junghyun/topst/cr5-bsp/sources/build/tcc805x/gcc/tcc805x-freertos-debug/obj/ipc_os.o
 .debug_line    0x0000000000005396      0x2f3 /home/junghyun/topst/cr5-bsp/sources/build/tcc805x/gcc/tcc805x-freertos-debug/obj/ipc_buffer.o
 .debug_line    0x0000000000005689      0x279 /home/junghyun/topst/cr5-bsp/sources/build/tcc805x/gcc/tcc805x-freertos-debug/obj/ipc_cmd.o
 .debug_line    0x0000000000005902      0x428 /home/junghyun/topst/cr5-bsp/sources/build/tcc805x/gcc/tcc805x-freertos-debug/obj/ipc_ctl.o
 .debug_line    0x0000000000005d2a      0x1f6 /home/junghyun/topst/cr5-bsp/sources/build/tcc805x/gcc/tcc805x-freertos-debug/obj/ipc_parser.o
 .debug_line    0x0000000000005f20      0x3ae /home/junghyun/topst/cr5-bsp/sources/build/tcc805x/gcc/tcc805x-freertos-debug/obj/ipc_api.o
 .debug_line    0x00000000000062ce      0x181 /home/junghyun/topst/cr5-bsp/sources/build/tcc805x/gcc/tcc805x-freertos-debug/obj/ipc.o
 .debug_line    0x000000000000644f      0x2ce /home/junghyun/topst/cr5-bsp/sources/build/tcc805x/gcc/tcc805x-freertos-debug/obj/lin.o
 .debug_line    0x000000000000671d      0x2ba /home/junghyun/topst/cr5-bsp/sources/build/tcc805x/gcc/tcc805x-freertos-debug/obj/sdm.o
 .debug_line    0x00000000000069d7      0x6de /home/junghyun/topst/cr5-bsp/sources/build/tcc805x/gcc/tcc805x-freertos-debug/obj/hsm_manager.o
 .debug_line    0x00000000000070b5      0x2e5 /home/junghyun/topst/cr5-bsp/sources/build/tcc805x/gcc/tcc805x-freertos-debug/obj/adc.o
 .debug_line    0x000000000000739a      0x2c1 /home/junghyun/topst/cr5-bsp/sources/build/tcc805x/gcc/tcc805x-freertos-debug/obj/can.o
 .debug_line    0x000000000000765b      0x581 /home/junghyun/topst/cr5-bsp/sources/build/tcc805x/gcc/tcc805x-freertos-debug/obj/can_drv.o
 .debug_line    0x0000000000007bdc      0x3da /home/junghyun/topst/cr5-bsp/sources/build/tcc805x/gcc/tcc805x-freertos-debug/obj/can_msg.o
 .debug_line    0x0000000000007fb6       0xfb /home/junghyun/topst/cr5-bsp/sources/build/tcc805x/gcc/tcc805x-freertos-debug/obj/can_par.o
 .debug_line    0x00000000000080b1      0x350 /home/junghyun/topst/cr5-bsp/sources/build/tcc805x/gcc/tcc805x-freertos-debug/obj/can_porting.o
 .debug_line    0x0000000000008401      0x5b6 /home/junghyun/topst/cr5-bsp/sources/build/tcc805x/gcc/tcc805x-freertos-debug/obj/clock_dev.o
 .debug_line    0x00000000000089b7      0x2af /home/junghyun/topst/cr5-bsp/sources/build/tcc805x/gcc/tcc805x-freertos-debug/obj/debug.o
 .debug_line    0x0000000000008c66      0x162 /home/junghyun/topst/cr5-bsp/sources/build/tcc805x/gcc/tcc805x-freertos-debug/obj/bsp.o
 .debug_line    0x0000000000008dc8      0x3ea /home/junghyun/topst/cr5-bsp/sources/build/tcc805x/gcc/tcc805x-freertos-debug/obj/fmu.o
 .debug_line    0x00000000000091b2      0x3a4 /home/junghyun/topst/cr5-bsp/sources/build/tcc805x/gcc/tcc805x-freertos-debug/obj/gdma.o
 .debug_line    0x0000000000009556      0x2dd /home/junghyun/topst/cr5-bsp/sources/build/tcc805x/gcc/tcc805x-freertos-debug/obj/gic.o
 .debug_line    0x0000000000009833      0x269 /home/junghyun/topst/cr5-bsp/sources/build/tcc805x/gcc/tcc805x-freertos-debug/obj/gpio.o
 .debug_line    0x0000000000009a9c      0x898 /home/junghyun/topst/cr5-bsp/sources/build/tcc805x/gcc/tcc805x-freertos-debug/obj/i2c.o
 .debug_line    0x000000000000a334      0x186 /home/junghyun/topst/cr5-bsp/sources/build/tcc805x/gcc/tcc805x-freertos-debug/obj/i2c_reg.o
 .debug_line    0x000000000000a4ba      0x3f9 /home/junghyun/topst/cr5-bsp/sources/build/tcc805x/gcc/tcc805x-freertos-debug/obj/ictc.o
 .debug_line    0x000000000000a8b3      0x2db /home/junghyun/topst/cr5-bsp/sources/build/tcc805x/gcc/tcc805x-freertos-debug/obj/mbox_phy.o
 .debug_line    0x000000000000ab8e      0xa2e /home/junghyun/topst/cr5-bsp/sources/build/tcc805x/gcc/tcc805x-freertos-debug/obj/mbox_dev.o
 .debug_line    0x000000000000b5bc      0x350 /home/junghyun/topst/cr5-bsp/sources/build/tcc805x/gcc/tcc805x-freertos-debug/obj/mbox.o
 .debug_line    0x000000000000b90c      0x17c /home/junghyun/topst/cr5-bsp/sources/build/tcc805x/gcc/tcc805x-freertos-debug/obj/mpu.o
 .debug_line    0x000000000000ba88      0x6a2 /home/junghyun/topst/cr5-bsp/sources/build/tcc805x/gcc/tcc805x-freertos-debug/obj/pdm.o
 .debug_line    0x000000000000c12a      0x62a /home/junghyun/topst/cr5-bsp/sources/build/tcc805x/gcc/tcc805x-freertos-debug/obj/pmio_dev.o
 .debug_line    0x000000000000c754      0xb35 /home/junghyun/topst/cr5-bsp/sources/build/tcc805x/gcc/tcc805x-freertos-debug/obj/gpsb.o
 .debug_line    0x000000000000d289      0x18b /home/junghyun/topst/cr5-bsp/sources/build/tcc805x/gcc/tcc805x-freertos-debug/obj/gpsb_reg.o
 .debug_line    0x000000000000d414      0x4ba /home/junghyun/topst/cr5-bsp/sources/build/tcc805x/gcc/tcc805x-freertos-debug/obj/timer.o
 .debug_line    0x000000000000d8ce      0x77c /home/junghyun/topst/cr5-bsp/sources/build/tcc805x/gcc/tcc805x-freertos-debug/obj/uart.o
 .debug_line    0x000000000000e04a      0x3a9 /home/junghyun/topst/cr5-bsp/sources/build/tcc805x/gcc/tcc805x-freertos-debug/obj/udma.o
 .debug_line    0x000000000000e3f3      0x2bd /home/junghyun/topst/cr5-bsp/sources/build/tcc805x/gcc/tcc805x-freertos-debug/obj/wdt.o
 .debug_line    0x000000000000e6b0      0x22a /home/junghyun/topst/cr5-bsp/sources/build/tcc805x/gcc/tcc805x-freertos-debug/obj/dse.o
 .debug_line    0x000000000000e8da      0x251 /home/junghyun/topst/cr5-bsp/sources/build/tcc805x/gcc/tcc805x-freertos-debug/obj/midf.o
 .debug_line    0x000000000000eb2b      0x29a /home/junghyun/topst/cr5-bsp/sources/build/tcc805x/gcc/tcc805x-freertos-debug/obj/pmu_reset.o
 .debug_line    0x000000000000edc5      0xb1d /home/junghyun/topst/cr5-bsp/sources/build/tcc805x/gcc/tcc805x-freertos-debug/obj/tasks.o
 .debug_line    0x000000000000f8e2      0x342 /home/junghyun/topst/cr5-bsp/sources/build/tcc805x/gcc/tcc805x-freertos-debug/obj/list.o
 .debug_line    0x000000000000fc24      0x942 /home/junghyun/topst/cr5-bsp/sources/build/tcc805x/gcc/tcc805x-freertos-debug/obj/queue.o
 .debug_line    0x0000000000010566      0x481 /home/junghyun/topst/cr5-bsp/sources/build/tcc805x/gcc/tcc805x-freertos-debug/obj/event_groups.o
 .debug_line    0x00000000000109e7      0x55f /home/junghyun/topst/cr5-bsp/sources/build/tcc805x/gcc/tcc805x-freertos-debug/obj/timers.o
 .debug_line    0x0000000000010f46      0x54b /home/junghyun/topst/cr5-bsp/sources/build/tcc805x/gcc/tcc805x-freertos-debug/obj/stream_buffer.o
 .debug_line    0x0000000000011491      0x53b /home/junghyun/topst/cr5-bsp/sources/build/tcc805x/gcc/tcc805x-freertos-debug/obj/port.o
 .debug_line    0x00000000000119cc      0x406 /home/junghyun/topst/cr5-bsp/sources/build/tcc805x/gcc/tcc805x-freertos-debug/obj/heap_5.o
 .debug_line    0x0000000000011dd2       0xaf /home/junghyun/topst/cr5-bsp/sources/build/tcc805x/gcc/tcc805x-freertos-debug/obj/sal_api.o
 .debug_line    0x0000000000011e81      0x78d /home/junghyun/topst/cr5-bsp/sources/build/tcc805x/gcc/tcc805x-freertos-debug/obj/sal_freertos_impl.o
 .debug_line    0x000000000001260e      0x140 /home/junghyun/topst/cr5-bsp/sources/build/tcc805x/gcc/tcc805x-freertos-debug/obj/project_ipc.o
 .debug_line    0x000000000001274e      0x1b2 /home/junghyun/topst/cr5-bsp/sources/build/tcc805x/gcc/tcc805x-freertos-debug/obj/project_i2c.o
 .debug_line    0x0000000000012900       0xf2 /home/junghyun/topst/cr5-bsp/sources/build/tcc805x/gcc/tcc805x-freertos-debug/obj/startup.o
 .debug_line    0x00000000000129f2       0x7c /home/junghyun/topst/cr5-bsp/sources/build/tcc805x/gcc/tcc805x-freertos-debug/obj/vector.o
 .debug_line    0x0000000000012a6e       0x6a /home/junghyun/topst/cr5-bsp/sources/build/tcc805x/gcc/tcc805x-freertos-debug/obj/vfp_init.o
 .debug_line    0x0000000000012ad8       0x68 /home/junghyun/topst/cr5-bsp/sources/build/tcc805x/gcc/tcc805x-freertos-debug/obj/arm_a.o
 .debug_line    0x0000000000012b40       0xd2 /home/junghyun/topst/cr5-bsp/sources/build/tcc805x/gcc/tcc805x-freertos-debug/obj/portASM.o
 .debug_line    0x0000000000012c12       0xc1 /home/junghyun/topst/cr5-bsp/sources/build/tcc805x/gcc/tcc805x-freertos-debug/obj/freertos.o
 .debug_line    0x0000000000012cd3       0x6d /home/junghyun/topst/cr5-bsp/sources/build/tcc805x/gcc/tcc805x-freertos-debug/obj/sal.o
 .debug_line    0x0000000000012d40      0x31c /home/junghyun/topst/buildtools/gcc-linaro-7.2.1-2017.11-x86_64_arm-eabi/arm-eabi/libc/usr/lib/libc.a(lib_a-atoi.o)
 .debug_line    0x000000000001305c      0x31b /home/junghyun/topst/buildtools/gcc-linaro-7.2.1-2017.11-x86_64_arm-eabi/arm-eabi/libc/usr/lib/libc.a(lib_a-atol.o)
 .debug_line    0x0000000000013377      0x345 /home/junghyun/topst/buildtools/gcc-linaro-7.2.1-2017.11-x86_64_arm-eabi/arm-eabi/libc/usr/lib/libc.a(lib_a-memcmp.o)
 .debug_line    0x00000000000136bc      0x36d /home/junghyun/topst/buildtools/gcc-linaro-7.2.1-2017.11-x86_64_arm-eabi/arm-eabi/libc/usr/lib/libc.a(lib_a-memcpy-stub.o)
 .debug_line    0x0000000000013a29      0x433 /home/junghyun/topst/buildtools/gcc-linaro-7.2.1-2017.11-x86_64_arm-eabi/arm-eabi/libc/usr/lib/libc.a(lib_a-memset.o)
 .debug_line    0x0000000000013e5c      0x323 /home/junghyun/topst/buildtools/gcc-linaro-7.2.1-2017.11-x86_64_arm-eabi/arm-eabi/libc/usr/lib/libc.a(lib_a-strlen-stub.o)
 .debug_line    0x000000000001417f      0x370 /home/junghyun/topst/buildtools/gcc-linaro-7.2.1-2017.11-x86_64_arm-eabi/arm-eabi/libc/usr/lib/libc.a(lib_a-strncmp.o)
 .debug_line    0x00000000000144ef      0x345 /home/junghyun/topst/buildtools/gcc-linaro-7.2.1-2017.11-x86_64_arm-eabi/arm-eabi/libc/usr/lib/libc.a(lib_a-strncpy.o)
 .debug_line    0x0000000000014834      0x324 /home/junghyun/topst/buildtools/gcc-linaro-7.2.1-2017.11-x86_64_arm-eabi/arm-eabi/libc/usr/lib/libc.a(lib_a-strnlen.o)
 .debug_line    0x0000000000014b58      0x47c /home/junghyun/topst/buildtools/gcc-linaro-7.2.1-2017.11-x86_64_arm-eabi/arm-eabi/libc/usr/lib/libc.a(lib_a-strtol.o)
 .debug_line    0x0000000000014fd4      0x47b /home/junghyun/topst/buildtools/gcc-linaro-7.2.1-2017.11-x86_64_arm-eabi/arm-eabi/libc/usr/lib/libc.a(lib_a-strtoul.o)
 .debug_line    0x000000000001544f      0x259 /home/junghyun/topst/buildtools/gcc-linaro-7.2.1-2017.11-x86_64_arm-eabi/arm-eabi/libc/usr/lib/libc.a(lib_a-impure.o)
 .debug_line    0x00000000000156a8      0x61c /home/junghyun/topst/buildtools/gcc-linaro-7.2.1-2017.11-x86_64_arm-eabi/arm-eabi/libc/usr/lib/libc.a(lib_a-locale.o)
 .debug_line    0x0000000000015cc4      0x61e /home/junghyun/topst/buildtools/gcc-linaro-7.2.1-2017.11-x86_64_arm-eabi/arm-eabi/libc/usr/lib/libc.a(lib_a-mbtowc_r.o)
 .debug_line    0x00000000000162e2      0x342 /home/junghyun/topst/buildtools/gcc-linaro-7.2.1-2017.11-x86_64_arm-eabi/arm-eabi/libc/usr/lib/libc.a(lib_a-strcasecmp.o)
 .debug_line    0x0000000000016624      0x32a /home/junghyun/topst/buildtools/gcc-linaro-7.2.1-2017.11-x86_64_arm-eabi/arm-eabi/libc/usr/lib/libc.a(lib_a-strcat.o)
 .debug_line    0x000000000001694e      0x357 /home/junghyun/topst/buildtools/gcc-linaro-7.2.1-2017.11-x86_64_arm-eabi/arm-eabi/libc/usr/lib/libc.a(lib_a-strchr.o)
 .debug_line    0x0000000000016ca5      0x176 /home/junghyun/topst/buildtools/gcc-linaro-7.2.1-2017.11-x86_64_arm-eabi/arm-eabi/libc/usr/lib/libc.a(lib_a-strcmp.o)
 .debug_line    0x0000000000016e1b      0x31e /home/junghyun/topst/buildtools/gcc-linaro-7.2.1-2017.11-x86_64_arm-eabi/arm-eabi/libc/usr/lib/libc.a(lib_a-strcpy.o)
 .debug_line    0x0000000000017139      0x332 /home/junghyun/topst/buildtools/gcc-linaro-7.2.1-2017.11-x86_64_arm-eabi/arm-eabi/libc/usr/lib/libc.a(lib_a-strlcpy.o)
 .debug_line    0x000000000001746b      0x353 /home/junghyun/topst/buildtools/gcc-linaro-7.2.1-2017.11-x86_64_arm-eabi/arm-eabi/libc/usr/lib/libc.a(lib_a-strncasecmp.o)
 .debug_line    0x00000000000177be      0x50b /home/junghyun/topst/buildtools/gcc-linaro-7.2.1-2017.11-x86_64_arm-eabi/arm-eabi/libc/usr/lib/libc.a(lib_a-wctomb_r.o)
 .debug_line    0x0000000000017cc9      0x3f8 /home/junghyun/topst/buildtools/gcc-linaro-7.2.1-2017.11-x86_64_arm-eabi/arm-eabi/libc/usr/lib/libc.a(lib_a-ctype_.o)
 .debug_line    0x00000000000180c1      0x363 /home/junghyun/topst/buildtools/gcc-linaro-7.2.1-2017.11-x86_64_arm-eabi/arm-eabi/libc/usr/lib/libc.a(lib_a-getenv_r.o)
 .debug_line    0x0000000000018424       0xcc /home/junghyun/topst/buildtools/gcc-linaro-7.2.1-2017.11-x86_64_arm-eabi/arm-eabi/libc/usr/lib/libc.a(lib_a-environ.o)
 .debug_line    0x00000000000184f0      0x31b /home/junghyun/topst/buildtools/gcc-linaro-7.2.1-2017.11-x86_64_arm-eabi/arm-eabi/libc/usr/lib/libc.a(lib_a-envlock.o)
 .debug_line    0x000000000001880b       0xfd /home/junghyun/topst/buildtools/gcc-linaro-7.2.1-2017.11-x86_64_arm-eabi/arm-eabi/libc/usr/lib/libgcc.a(_udivsi3.o)
 .debug_line    0x0000000000018908       0xe0 /home/junghyun/topst/buildtools/gcc-linaro-7.2.1-2017.11-x86_64_arm-eabi/arm-eabi/libc/usr/lib/libgcc.a(_dvmd_tls.o)
 .debug_line    0x00000000000189e8       0xe0 /home/junghyun/topst/buildtools/gcc-linaro-7.2.1-2017.11-x86_64_arm-eabi/arm-eabi/libc/usr/lib/libgcc.a(_aeabi_uldivmod.o)
 .debug_line    0x0000000000018ac8      0x4ff /home/junghyun/topst/buildtools/gcc-linaro-7.2.1-2017.11-x86_64_arm-eabi/arm-eabi/libc/usr/lib/libgcc.a(_udivmoddi4.o)
 .debug_line    0x0000000000018fc7       0xea /home/junghyun/topst/buildtools/gcc-linaro-7.2.1-2017.11-x86_64_arm-eabi/arm-eabi/libc/usr/lib/libgcc.a(_clzdi2.o)
 .debug_line    0x00000000000190b1       0xed /home/junghyun/topst/buildtools/gcc-linaro-7.2.1-2017.11-x86_64_arm-eabi/arm-eabi/libc/usr/lib/libgcc.a(_clzsi2.o)

.debug_str      0x0000000000000000    0x16c32
 .debug_str     0x0000000000000000     0x138b /home/junghyun/topst/cr5-bsp/sources/build/tcc805x/gcc/tcc805x-freertos-debug/obj/main.o
                                       0x1445 (size before relaxing)
 .debug_str     0x000000000000138b      0x7a0 /home/junghyun/topst/cr5-bsp/sources/build/tcc805x/gcc/tcc805x-freertos-debug/obj/can_demo.o
                                       0x19e9 (size before relaxing)
 .debug_str     0x0000000000001b2b      0xd4e /home/junghyun/topst/cr5-bsp/sources/build/tcc805x/gcc/tcc805x-freertos-debug/obj/console.o
                                       0x21a9 (size before relaxing)
 .debug_str     0x0000000000002879      0x71a /home/junghyun/topst/cr5-bsp/sources/build/tcc805x/gcc/tcc805x-freertos-debug/obj/fwug.o
                                       0x1ac4 (size before relaxing)
 .debug_str     0x0000000000002f93      0x2d9 /home/junghyun/topst/cr5-bsp/sources/build/tcc805x/gcc/tcc805x-freertos-debug/obj/key_adc.o
                                       0x1508 (size before relaxing)
 .debug_str     0x000000000000326c      0x2a0 /home/junghyun/topst/cr5-bsp/sources/build/tcc805x/gcc/tcc805x-freertos-debug/obj/key_gpio.o
                                       0x14e4 (size before relaxing)
 .debug_str     0x000000000000350c      0x25f /home/junghyun/topst/cr5-bsp/sources/build/tcc805x/gcc/tcc805x-freertos-debug/obj/key_i2c.o
                                       0x14cd (size before relaxing)
 .debug_str     0x000000000000376b      0x2b7 /home/junghyun/topst/cr5-bsp/sources/build/tcc805x/gcc/tcc805x-freertos-debug/obj/key.o
                                       0x15a2 (size before relaxing)
 .debug_str     0x0000000000003a22      0x30f /home/junghyun/topst/cr5-bsp/sources/build/tcc805x/gcc/tcc805x-freertos-debug/obj/system_monitoring.o
                                       0x15d6 (size before relaxing)
 .debug_str     0x0000000000003d31      0x143 /home/junghyun/topst/cr5-bsp/sources/build/tcc805x/gcc/tcc805x-freertos-debug/obj/bootctrl.o
                                       0x14d8 (size before relaxing)
 .debug_str     0x0000000000003e74       0x62 /home/junghyun/topst/cr5-bsp/sources/build/tcc805x/gcc/tcc805x-freertos-debug/obj/reset_demo.o
                                       0x1292 (size before relaxing)
 .debug_str     0x0000000000003ed6       0x48 /home/junghyun/topst/cr5-bsp/sources/build/tcc805x/gcc/tcc805x-freertos-debug/obj/adc_test.o
                                       0x1263 (size before relaxing)
 .debug_str     0x0000000000003f1e      0x46a /home/junghyun/topst/cr5-bsp/sources/build/tcc805x/gcc/tcc805x-freertos-debug/obj/dse_test.o
                                       0x168a (size before relaxing)
 .debug_str     0x0000000000004388      0x7d1 /home/junghyun/topst/cr5-bsp/sources/build/tcc805x/gcc/tcc805x-freertos-debug/obj/fmu_test.o
                                       0x1d49 (size before relaxing)
 .debug_str     0x0000000000004b59       0xd6 /home/junghyun/topst/cr5-bsp/sources/build/tcc805x/gcc/tcc805x-freertos-debug/obj/gdma_test.o
                                       0x12fa (size before relaxing)
 .debug_str     0x0000000000004c2f       0x9c /home/junghyun/topst/cr5-bsp/sources/build/tcc805x/gcc/tcc805x-freertos-debug/obj/gic_test.o
                                       0x12d2 (size before relaxing)
 .debug_str     0x0000000000004ccb       0xcd /home/junghyun/topst/cr5-bsp/sources/build/tcc805x/gcc/tcc805x-freertos-debug/obj/gpio_test.o
                                       0x12f5 (size before relaxing)
 .debug_str     0x0000000000004d98      0x36c /home/junghyun/topst/cr5-bsp/sources/build/tcc805x/gcc/tcc805x-freertos-debug/obj/gpsb_test.o
                                       0x1a7f (size before relaxing)
 .debug_str     0x0000000000005104      0x320 /home/junghyun/topst/cr5-bsp/sources/build/tcc805x/gcc/tcc805x-freertos-debug/obj/hsm_test.o
                                       0x1986 (size before relaxing)
 .debug_str     0x0000000000005424      0x165 /home/junghyun/topst/cr5-bsp/sources/build/tcc805x/gcc/tcc805x-freertos-debug/obj/i2c_test.o
                                       0x156b (size before relaxing)
 .debug_str     0x0000000000005589       0xea /home/junghyun/topst/cr5-bsp/sources/build/tcc805x/gcc/tcc805x-freertos-debug/obj/ictc_test.o
                                       0x130f (size before relaxing)
 .debug_str     0x0000000000005673       0xf1 /home/junghyun/topst/cr5-bsp/sources/build/tcc805x/gcc/tcc805x-freertos-debug/obj/lin_test.o
                                       0x1320 (size before relaxing)
 .debug_str     0x0000000000005764      0x1ea /home/junghyun/topst/cr5-bsp/sources/build/tcc805x/gcc/tcc805x-freertos-debug/obj/pdm_test.o
                                       0x1416 (size before relaxing)
 .debug_str     0x000000000000594e      0x1a9 /home/junghyun/topst/cr5-bsp/sources/build/tcc805x/gcc/tcc805x-freertos-debug/obj/pmio_test.o
                                       0x17ca (size before relaxing)
 .debug_str     0x0000000000005af7      0x563 /home/junghyun/topst/cr5-bsp/sources/build/tcc805x/gcc/tcc805x-freertos-debug/obj/timer_test.o
                                       0x1cfb (size before relaxing)
 .debug_str     0x000000000000605a      0x231 /home/junghyun/topst/cr5-bsp/sources/build/tcc805x/gcc/tcc805x-freertos-debug/obj/wdt_test.o
                                       0x1aeb (size before relaxing)
 .debug_str     0x000000000000628b       0x86 /home/junghyun/topst/cr5-bsp/sources/build/tcc805x/gcc/tcc805x-freertos-debug/obj/mptool.o
                                       0x12af (size before relaxing)
 .debug_str     0x0000000000006311      0x4af /home/junghyun/topst/cr5-bsp/sources/build/tcc805x/gcc/tcc805x-freertos-debug/obj/ipc_os.o
                                       0x1776 (size before relaxing)
 .debug_str     0x00000000000067c0      0x20d /home/junghyun/topst/cr5-bsp/sources/build/tcc805x/gcc/tcc805x-freertos-debug/obj/ipc_buffer.o
                                       0x1493 (size before relaxing)
 .debug_str     0x00000000000069cd      0x19b /home/junghyun/topst/cr5-bsp/sources/build/tcc805x/gcc/tcc805x-freertos-debug/obj/ipc_cmd.o
                                       0x1661 (size before relaxing)
 .debug_str     0x0000000000006b68      0x4e2 /home/junghyun/topst/cr5-bsp/sources/build/tcc805x/gcc/tcc805x-freertos-debug/obj/ipc_ctl.o
                                       0x1aac (size before relaxing)
 .debug_str     0x000000000000704a      0x1e1 /home/junghyun/topst/cr5-bsp/sources/build/tcc805x/gcc/tcc805x-freertos-debug/obj/ipc_parser.o
                                       0x14dc (size before relaxing)
 .debug_str     0x000000000000722b      0x17f /home/junghyun/topst/cr5-bsp/sources/build/tcc805x/gcc/tcc805x-freertos-debug/obj/ipc_api.o
                                       0x19dd (size before relaxing)
 .debug_str     0x00000000000073aa       0xb8 /home/junghyun/topst/cr5-bsp/sources/build/tcc805x/gcc/tcc805x-freertos-debug/obj/ipc.o
                                       0x14d7 (size before relaxing)
 .debug_str     0x0000000000007462      0x1b1 /home/junghyun/topst/cr5-bsp/sources/build/tcc805x/gcc/tcc805x-freertos-debug/obj/lin.o
                                       0x1430 (size before relaxing)
 .debug_str     0x0000000000007613      0x163 /home/junghyun/topst/cr5-bsp/sources/build/tcc805x/gcc/tcc805x-freertos-debug/obj/sdm.o
                                       0x1572 (size before relaxing)
 .debug_str     0x0000000000007776      0x231 /home/junghyun/topst/cr5-bsp/sources/build/tcc805x/gcc/tcc805x-freertos-debug/obj/hsm_manager.o
                                       0x19e6 (size before relaxing)
 .debug_str     0x00000000000079a7      0x342 /home/junghyun/topst/cr5-bsp/sources/build/tcc805x/gcc/tcc805x-freertos-debug/obj/adc.o
                                       0x1bba (size before relaxing)
 .debug_str     0x0000000000007ce9     0x2051 /home/junghyun/topst/cr5-bsp/sources/build/tcc805x/gcc/tcc805x-freertos-debug/obj/can.o
                                       0x3789 (size before relaxing)
 .debug_str     0x0000000000009d3a      0x811 /home/junghyun/topst/cr5-bsp/sources/build/tcc805x/gcc/tcc805x-freertos-debug/obj/can_drv.o
                                       0x3c5e (size before relaxing)
 .debug_str     0x000000000000a54b      0x7e6 /home/junghyun/topst/cr5-bsp/sources/build/tcc805x/gcc/tcc805x-freertos-debug/obj/can_msg.o
                                       0x3d62 (size before relaxing)
 .debug_str     0x000000000000ad31       0xcf /home/junghyun/topst/cr5-bsp/sources/build/tcc805x/gcc/tcc805x-freertos-debug/obj/can_par.o
                                       0x1d18 (size before relaxing)
 .debug_str     0x000000000000ae00      0x4b2 /home/junghyun/topst/cr5-bsp/sources/build/tcc805x/gcc/tcc805x-freertos-debug/obj/can_porting.o
                                       0x4067 (size before relaxing)
 .debug_str     0x000000000000b2b2      0xe73 /home/junghyun/topst/cr5-bsp/sources/build/tcc805x/gcc/tcc805x-freertos-debug/obj/clock_dev.o
                                       0x2705 (size before relaxing)
 .debug_str     0x000000000000c125      0x106 /home/junghyun/topst/cr5-bsp/sources/build/tcc805x/gcc/tcc805x-freertos-debug/obj/debug.o
                                       0x133e (size before relaxing)
 .debug_str     0x000000000000c22b       0xa3 /home/junghyun/topst/cr5-bsp/sources/build/tcc805x/gcc/tcc805x-freertos-debug/obj/bsp.o
                                       0x142a (size before relaxing)
 .debug_str     0x000000000000c2ce      0x3b8 /home/junghyun/topst/cr5-bsp/sources/build/tcc805x/gcc/tcc805x-freertos-debug/obj/fmu.o
                                       0x241f (size before relaxing)
 .debug_str     0x000000000000c686      0x282 /home/junghyun/topst/cr5-bsp/sources/build/tcc805x/gcc/tcc805x-freertos-debug/obj/gdma.o
                                       0x2031 (size before relaxing)
 .debug_str     0x000000000000c908      0x407 /home/junghyun/topst/cr5-bsp/sources/build/tcc805x/gcc/tcc805x-freertos-debug/obj/gic.o
                                       0x1b90 (size before relaxing)
 .debug_str     0x000000000000cd0f      0x119 /home/junghyun/topst/cr5-bsp/sources/build/tcc805x/gcc/tcc805x-freertos-debug/obj/gpio.o
                                       0x135b (size before relaxing)
 .debug_str     0x000000000000ce28      0x283 /home/junghyun/topst/cr5-bsp/sources/build/tcc805x/gcc/tcc805x-freertos-debug/obj/i2c.o
                                       0x1bde (size before relaxing)
 .debug_str     0x000000000000d0ab       0x47 /home/junghyun/topst/cr5-bsp/sources/build/tcc805x/gcc/tcc805x-freertos-debug/obj/i2c_reg.o
                                       0x1c1d (size before relaxing)
 .debug_str     0x000000000000d0f2      0x392 /home/junghyun/topst/cr5-bsp/sources/build/tcc805x/gcc/tcc805x-freertos-debug/obj/ictc.o
                                       0x1d9c (size before relaxing)
 .debug_str     0x000000000000d484      0x743 /home/junghyun/topst/cr5-bsp/sources/build/tcc805x/gcc/tcc805x-freertos-debug/obj/mbox_phy.o
                                       0x202d (size before relaxing)
 .debug_str     0x000000000000dbc7      0x43b /home/junghyun/topst/cr5-bsp/sources/build/tcc805x/gcc/tcc805x-freertos-debug/obj/mbox_dev.o
                                       0x20d1 (size before relaxing)
 .debug_str     0x000000000000e002       0xd6 /home/junghyun/topst/cr5-bsp/sources/build/tcc805x/gcc/tcc805x-freertos-debug/obj/mbox.o
                                       0x1944 (size before relaxing)
 .debug_str     0x000000000000e0d8      0x133 /home/junghyun/topst/cr5-bsp/sources/build/tcc805x/gcc/tcc805x-freertos-debug/obj/mpu.o
                                       0x1372 (size before relaxing)
 .debug_str     0x000000000000e20b      0x650 /home/junghyun/topst/cr5-bsp/sources/build/tcc805x/gcc/tcc805x-freertos-debug/obj/pdm.o
                                       0x1f41 (size before relaxing)
 .debug_str     0x000000000000e85b      0x87c /home/junghyun/topst/cr5-bsp/sources/build/tcc805x/gcc/tcc805x-freertos-debug/obj/pmio_dev.o
                                       0x2713 (size before relaxing)
 .debug_str     0x000000000000f0d7      0x59d /home/junghyun/topst/cr5-bsp/sources/build/tcc805x/gcc/tcc805x-freertos-debug/obj/gpsb.o
                                       0x1efa (size before relaxing)
 .debug_str     0x000000000000f674       0x49 /home/junghyun/topst/cr5-bsp/sources/build/tcc805x/gcc/tcc805x-freertos-debug/obj/gpsb_reg.o
                                       0x1be2 (size before relaxing)
 .debug_str     0x000000000000f6bd      0x2a8 /home/junghyun/topst/cr5-bsp/sources/build/tcc805x/gcc/tcc805x-freertos-debug/obj/timer.o
                                       0x1e80 (size before relaxing)
 .debug_str     0x000000000000f965      0x644 /home/junghyun/topst/cr5-bsp/sources/build/tcc805x/gcc/tcc805x-freertos-debug/obj/uart.o
                                       0x27a1 (size before relaxing)
 .debug_str     0x000000000000ffa9      0x287 /home/junghyun/topst/cr5-bsp/sources/build/tcc805x/gcc/tcc805x-freertos-debug/obj/udma.o
                                       0x208e (size before relaxing)
 .debug_str     0x0000000000010230      0x219 /home/junghyun/topst/cr5-bsp/sources/build/tcc805x/gcc/tcc805x-freertos-debug/obj/wdt.o
                                       0x1e0c (size before relaxing)
 .debug_str     0x0000000000010449      0x1d2 /home/junghyun/topst/cr5-bsp/sources/build/tcc805x/gcc/tcc805x-freertos-debug/obj/dse.o
                                       0x1979 (size before relaxing)
 .debug_str     0x000000000001061b      0x1be /home/junghyun/topst/cr5-bsp/sources/build/tcc805x/gcc/tcc805x-freertos-debug/obj/midf.o
                                       0x1756 (size before relaxing)
 .debug_str     0x00000000000107d9      0x148 /home/junghyun/topst/cr5-bsp/sources/build/tcc805x/gcc/tcc805x-freertos-debug/obj/pmu_reset.o
                                       0x18d9 (size before relaxing)
 .debug_str     0x0000000000010921      0xe06 /home/junghyun/topst/cr5-bsp/sources/build/tcc805x/gcc/tcc805x-freertos-debug/obj/tasks.o
                                       0x1414 (size before relaxing)
 .debug_str     0x0000000000011727       0xc5 /home/junghyun/topst/cr5-bsp/sources/build/tcc805x/gcc/tcc805x-freertos-debug/obj/list.o
                                        0x6e4 (size before relaxing)
 .debug_str     0x00000000000117ec      0x7c8 /home/junghyun/topst/cr5-bsp/sources/build/tcc805x/gcc/tcc805x-freertos-debug/obj/queue.o
                                        0xf68 (size before relaxing)
 .debug_str     0x0000000000011fb4      0x2c3 /home/junghyun/topst/cr5-bsp/sources/build/tcc805x/gcc/tcc805x-freertos-debug/obj/event_groups.o
                                        0x9ff (size before relaxing)
 .debug_str     0x0000000000012277      0x584 /home/junghyun/topst/cr5-bsp/sources/build/tcc805x/gcc/tcc805x-freertos-debug/obj/timers.o
                                        0xe48 (size before relaxing)
 .debug_str     0x00000000000127fb      0x4b1 /home/junghyun/topst/cr5-bsp/sources/build/tcc805x/gcc/tcc805x-freertos-debug/obj/stream_buffer.o
                                        0xb98 (size before relaxing)
 .debug_str     0x0000000000012cac      0x406 /home/junghyun/topst/cr5-bsp/sources/build/tcc805x/gcc/tcc805x-freertos-debug/obj/port.o
                                       0x2171 (size before relaxing)
 .debug_str     0x00000000000130b2      0x322 /home/junghyun/topst/cr5-bsp/sources/build/tcc805x/gcc/tcc805x-freertos-debug/obj/heap_5.o
                                        0x912 (size before relaxing)
 .debug_str     0x00000000000133d4      0x103 /home/junghyun/topst/cr5-bsp/sources/build/tcc805x/gcc/tcc805x-freertos-debug/obj/sal_api.o
                                       0x12ec (size before relaxing)
 .debug_str     0x00000000000134d7      0x535 /home/junghyun/topst/cr5-bsp/sources/build/tcc805x/gcc/tcc805x-freertos-debug/obj/sal_freertos_impl.o
                                       0x1e57 (size before relaxing)
 .debug_str     0x0000000000013a0c       0x5b /home/junghyun/topst/cr5-bsp/sources/build/tcc805x/gcc/tcc805x-freertos-debug/obj/project_ipc.o
                                       0x12ec (size before relaxing)
 .debug_str     0x0000000000013a67       0x95 /home/junghyun/topst/cr5-bsp/sources/build/tcc805x/gcc/tcc805x-freertos-debug/obj/project_i2c.o
                                       0x14be (size before relaxing)
 .debug_str     0x0000000000013afc      0x1c3 /home/junghyun/topst/buildtools/gcc-linaro-7.2.1-2017.11-x86_64_arm-eabi/arm-eabi/libc/usr/lib/libc.a(lib_a-atoi.o)
                                        0x641 (size before relaxing)
 .debug_str     0x0000000000013cbf       0xb6 /home/junghyun/topst/buildtools/gcc-linaro-7.2.1-2017.11-x86_64_arm-eabi/arm-eabi/libc/usr/lib/libc.a(lib_a-atol.o)
                                        0x641 (size before relaxing)
 .debug_str     0x0000000000013d75      0x183 /home/junghyun/topst/buildtools/gcc-linaro-7.2.1-2017.11-x86_64_arm-eabi/arm-eabi/libc/usr/lib/libc.a(lib_a-memcmp.o)
                                        0x629 (size before relaxing)
 .debug_str     0x0000000000013ef8      0x1b9 /home/junghyun/topst/buildtools/gcc-linaro-7.2.1-2017.11-x86_64_arm-eabi/arm-eabi/libc/usr/lib/libc.a(lib_a-memcpy-stub.o)
                                        0x65f (size before relaxing)
 .debug_str     0x00000000000140b1      0x2fc /home/junghyun/topst/buildtools/gcc-linaro-7.2.1-2017.11-x86_64_arm-eabi/arm-eabi/libc/usr/lib/libc.a(lib_a-memset.o)
                                        0x952 (size before relaxing)
 .debug_str     0x00000000000143ad       0xbc /home/junghyun/topst/buildtools/gcc-linaro-7.2.1-2017.11-x86_64_arm-eabi/arm-eabi/libc/usr/lib/libc.a(lib_a-strlen-stub.o)
                                        0x638 (size before relaxing)
 .debug_str     0x0000000000014469       0xb4 /home/junghyun/topst/buildtools/gcc-linaro-7.2.1-2017.11-x86_64_arm-eabi/arm-eabi/libc/usr/lib/libc.a(lib_a-strncmp.o)
                                        0x62b (size before relaxing)
 .debug_str     0x000000000001451d       0xb4 /home/junghyun/topst/buildtools/gcc-linaro-7.2.1-2017.11-x86_64_arm-eabi/arm-eabi/libc/usr/lib/libc.a(lib_a-strncpy.o)
                                        0x653 (size before relaxing)
 .debug_str     0x00000000000145d1       0xb4 /home/junghyun/topst/buildtools/gcc-linaro-7.2.1-2017.11-x86_64_arm-eabi/arm-eabi/libc/usr/lib/libc.a(lib_a-strnlen.o)
                                        0x631 (size before relaxing)
 .debug_str     0x0000000000014685      0x12a /home/junghyun/topst/buildtools/gcc-linaro-7.2.1-2017.11-x86_64_arm-eabi/arm-eabi/libc/usr/lib/libc.a(lib_a-strtol.o)
                                        0x9f5 (size before relaxing)
 .debug_str     0x00000000000147af       0xca /home/junghyun/topst/buildtools/gcc-linaro-7.2.1-2017.11-x86_64_arm-eabi/arm-eabi/libc/usr/lib/libc.a(lib_a-strtoul.o)
                                        0x9fa (size before relaxing)
 .debug_str     0x0000000000014879      0x186 /home/junghyun/topst/buildtools/gcc-linaro-7.2.1-2017.11-x86_64_arm-eabi/arm-eabi/libc/usr/lib/libc.a(lib_a-impure.o)
                                        0x625 (size before relaxing)
 .debug_str     0x00000000000149ff      0x319 /home/junghyun/topst/buildtools/gcc-linaro-7.2.1-2017.11-x86_64_arm-eabi/arm-eabi/libc/usr/lib/libc.a(lib_a-locale.o)
                                        0xb66 (size before relaxing)
 .debug_str     0x0000000000014d18      0x227 /home/junghyun/topst/buildtools/gcc-linaro-7.2.1-2017.11-x86_64_arm-eabi/arm-eabi/libc/usr/lib/libc.a(lib_a-mbtowc_r.o)
                                        0xafe (size before relaxing)
 .debug_str     0x0000000000014f3f       0xaf /home/junghyun/topst/buildtools/gcc-linaro-7.2.1-2017.11-x86_64_arm-eabi/arm-eabi/libc/usr/lib/libc.a(lib_a-strcasecmp.o)
                                        0x645 (size before relaxing)
 .debug_str     0x0000000000014fee       0xb6 /home/junghyun/topst/buildtools/gcc-linaro-7.2.1-2017.11-x86_64_arm-eabi/arm-eabi/libc/usr/lib/libc.a(lib_a-strcat.o)
                                        0x634 (size before relaxing)
 .debug_str     0x00000000000150a4       0xab /home/junghyun/topst/buildtools/gcc-linaro-7.2.1-2017.11-x86_64_arm-eabi/arm-eabi/libc/usr/lib/libc.a(lib_a-strchr.o)
                                        0x634 (size before relaxing)
 .debug_str     0x000000000001514f       0xb0 /home/junghyun/topst/buildtools/gcc-linaro-7.2.1-2017.11-x86_64_arm-eabi/arm-eabi/libc/usr/lib/libc.a(lib_a-strcpy.o)
                                        0x62c (size before relaxing)
 .debug_str     0x00000000000151ff       0xac /home/junghyun/topst/buildtools/gcc-linaro-7.2.1-2017.11-x86_64_arm-eabi/arm-eabi/libc/usr/lib/libc.a(lib_a-strlcpy.o)
                                        0x62b (size before relaxing)
 .debug_str     0x00000000000152ab       0xb0 /home/junghyun/topst/buildtools/gcc-linaro-7.2.1-2017.11-x86_64_arm-eabi/arm-eabi/libc/usr/lib/libc.a(lib_a-strncasecmp.o)
                                        0x64e (size before relaxing)
 .debug_str     0x000000000001535b      0x111 /home/junghyun/topst/buildtools/gcc-linaro-7.2.1-2017.11-x86_64_arm-eabi/arm-eabi/libc/usr/lib/libc.a(lib_a-wctomb_r.o)
                                        0xa13 (size before relaxing)
 .debug_str     0x000000000001546c      0x17a /home/junghyun/topst/buildtools/gcc-linaro-7.2.1-2017.11-x86_64_arm-eabi/arm-eabi/libc/usr/lib/libc.a(lib_a-ctype_.o)
                                        0x951 (size before relaxing)
 .debug_str     0x00000000000155e6       0xe4 /home/junghyun/topst/buildtools/gcc-linaro-7.2.1-2017.11-x86_64_arm-eabi/arm-eabi/libc/usr/lib/libc.a(lib_a-getenv_r.o)
                                        0x684 (size before relaxing)
 .debug_str     0x00000000000156ca       0xb8 /home/junghyun/topst/buildtools/gcc-linaro-7.2.1-2017.11-x86_64_arm-eabi/arm-eabi/libc/usr/lib/libc.a(lib_a-environ.o)
                                        0x1ce (size before relaxing)
 .debug_str     0x0000000000015782       0xbe /home/junghyun/topst/buildtools/gcc-linaro-7.2.1-2017.11-x86_64_arm-eabi/arm-eabi/libc/usr/lib/libc.a(lib_a-envlock.o)
                                        0x646 (size before relaxing)
 .debug_str     0x0000000000015840     0x13f2 /home/junghyun/topst/buildtools/gcc-linaro-7.2.1-2017.11-x86_64_arm-eabi/arm-eabi/libc/usr/lib/libgcc.a(_udivmoddi4.o)
                                       0x18a8 (size before relaxing)

.comment        0x0000000000000000       0x2d
 .comment       0x0000000000000000       0x2d /home/junghyun/topst/cr5-bsp/sources/build/tcc805x/gcc/tcc805x-freertos-debug/obj/main.o
                                         0x2e (size before relaxing)
 .comment       0x000000000000002d       0x2e /home/junghyun/topst/cr5-bsp/sources/build/tcc805x/gcc/tcc805x-freertos-debug/obj/can_demo.o
 .comment       0x000000000000002d       0x2e /home/junghyun/topst/cr5-bsp/sources/build/tcc805x/gcc/tcc805x-freertos-debug/obj/console.o
 .comment       0x000000000000002d       0x2e /home/junghyun/topst/cr5-bsp/sources/build/tcc805x/gcc/tcc805x-freertos-debug/obj/fwug.o
 .comment       0x000000000000002d       0x2e /home/junghyun/topst/cr5-bsp/sources/build/tcc805x/gcc/tcc805x-freertos-debug/obj/key_adc.o
 .comment       0x000000000000002d       0x2e /home/junghyun/topst/cr5-bsp/sources/build/tcc805x/gcc/tcc805x-freertos-debug/obj/key_gpio.o
 .comment       0x000000000000002d       0x2e /home/junghyun/topst/cr5-bsp/sources/build/tcc805x/gcc/tcc805x-freertos-debug/obj/key_i2c.o
 .comment       0x000000000000002d       0x2e /home/junghyun/topst/cr5-bsp/sources/build/tcc805x/gcc/tcc805x-freertos-debug/obj/key.o
 .comment       0x000000000000002d       0x2e /home/junghyun/topst/cr5-bsp/sources/build/tcc805x/gcc/tcc805x-freertos-debug/obj/system_monitoring.o
 .comment       0x000000000000002d       0x2e /home/junghyun/topst/cr5-bsp/sources/build/tcc805x/gcc/tcc805x-freertos-debug/obj/bootctrl.o
 .comment       0x000000000000002d       0x2e /home/junghyun/topst/cr5-bsp/sources/build/tcc805x/gcc/tcc805x-freertos-debug/obj/reset_demo.o
 .comment       0x000000000000002d       0x2e /home/junghyun/topst/cr5-bsp/sources/build/tcc805x/gcc/tcc805x-freertos-debug/obj/adc_test.o
 .comment       0x000000000000002d       0x2e /home/junghyun/topst/cr5-bsp/sources/build/tcc805x/gcc/tcc805x-freertos-debug/obj/dse_test.o
 .comment       0x000000000000002d       0x2e /home/junghyun/topst/cr5-bsp/sources/build/tcc805x/gcc/tcc805x-freertos-debug/obj/fmu_test.o
 .comment       0x000000000000002d       0x2e /home/junghyun/topst/cr5-bsp/sources/build/tcc805x/gcc/tcc805x-freertos-debug/obj/gdma_test.o
 .comment       0x000000000000002d       0x2e /home/junghyun/topst/cr5-bsp/sources/build/tcc805x/gcc/tcc805x-freertos-debug/obj/gic_test.o
 .comment       0x000000000000002d       0x2e /home/junghyun/topst/cr5-bsp/sources/build/tcc805x/gcc/tcc805x-freertos-debug/obj/gpio_test.o
 .comment       0x000000000000002d       0x2e /home/junghyun/topst/cr5-bsp/sources/build/tcc805x/gcc/tcc805x-freertos-debug/obj/gpsb_test.o
 .comment       0x000000000000002d       0x2e /home/junghyun/topst/cr5-bsp/sources/build/tcc805x/gcc/tcc805x-freertos-debug/obj/hsm_test.o
 .comment       0x000000000000002d       0x2e /home/junghyun/topst/cr5-bsp/sources/build/tcc805x/gcc/tcc805x-freertos-debug/obj/i2c_test.o
 .comment       0x000000000000002d       0x2e /home/junghyun/topst/cr5-bsp/sources/build/tcc805x/gcc/tcc805x-freertos-debug/obj/ictc_test.o
 .comment       0x000000000000002d       0x2e /home/junghyun/topst/cr5-bsp/sources/build/tcc805x/gcc/tcc805x-freertos-debug/obj/lin_test.o
 .comment       0x000000000000002d       0x2e /home/junghyun/topst/cr5-bsp/sources/build/tcc805x/gcc/tcc805x-freertos-debug/obj/pdm_test.o
 .comment       0x000000000000002d       0x2e /home/junghyun/topst/cr5-bsp/sources/build/tcc805x/gcc/tcc805x-freertos-debug/obj/pmio_test.o
 .comment       0x000000000000002d       0x2e /home/junghyun/topst/cr5-bsp/sources/build/tcc805x/gcc/tcc805x-freertos-debug/obj/timer_test.o
 .comment       0x000000000000002d       0x2e /home/junghyun/topst/cr5-bsp/sources/build/tcc805x/gcc/tcc805x-freertos-debug/obj/wdt_test.o
 .comment       0x000000000000002d       0x2e /home/junghyun/topst/cr5-bsp/sources/build/tcc805x/gcc/tcc805x-freertos-debug/obj/mptool.o
 .comment       0x000000000000002d       0x2e /home/junghyun/topst/cr5-bsp/sources/build/tcc805x/gcc/tcc805x-freertos-debug/obj/ipc_os.o
 .comment       0x000000000000002d       0x2e /home/junghyun/topst/cr5-bsp/sources/build/tcc805x/gcc/tcc805x-freertos-debug/obj/ipc_buffer.o
 .comment       0x000000000000002d       0x2e /home/junghyun/topst/cr5-bsp/sources/build/tcc805x/gcc/tcc805x-freertos-debug/obj/ipc_cmd.o
 .comment       0x000000000000002d       0x2e /home/junghyun/topst/cr5-bsp/sources/build/tcc805x/gcc/tcc805x-freertos-debug/obj/ipc_ctl.o
 .comment       0x000000000000002d       0x2e /home/junghyun/topst/cr5-bsp/sources/build/tcc805x/gcc/tcc805x-freertos-debug/obj/ipc_parser.o
 .comment       0x000000000000002d       0x2e /home/junghyun/topst/cr5-bsp/sources/build/tcc805x/gcc/tcc805x-freertos-debug/obj/ipc_api.o
 .comment       0x000000000000002d       0x2e /home/junghyun/topst/cr5-bsp/sources/build/tcc805x/gcc/tcc805x-freertos-debug/obj/ipc.o
 .comment       0x000000000000002d       0x2e /home/junghyun/topst/cr5-bsp/sources/build/tcc805x/gcc/tcc805x-freertos-debug/obj/lin.o
 .comment       0x000000000000002d       0x2e /home/junghyun/topst/cr5-bsp/sources/build/tcc805x/gcc/tcc805x-freertos-debug/obj/sdm.o
 .comment       0x000000000000002d       0x2e /home/junghyun/topst/cr5-bsp/sources/build/tcc805x/gcc/tcc805x-freertos-debug/obj/hsm_manager.o
 .comment       0x000000000000002d       0x2e /home/junghyun/topst/cr5-bsp/sources/build/tcc805x/gcc/tcc805x-freertos-debug/obj/adc.o
 .comment       0x000000000000002d       0x2e /home/junghyun/topst/cr5-bsp/sources/build/tcc805x/gcc/tcc805x-freertos-debug/obj/can.o
 .comment       0x000000000000002d       0x2e /home/junghyun/topst/cr5-bsp/sources/build/tcc805x/gcc/tcc805x-freertos-debug/obj/can_drv.o
 .comment       0x000000000000002d       0x2e /home/junghyun/topst/cr5-bsp/sources/build/tcc805x/gcc/tcc805x-freertos-debug/obj/can_msg.o
 .comment       0x000000000000002d       0x2e /home/junghyun/topst/cr5-bsp/sources/build/tcc805x/gcc/tcc805x-freertos-debug/obj/can_par.o
 .comment       0x000000000000002d       0x2e /home/junghyun/topst/cr5-bsp/sources/build/tcc805x/gcc/tcc805x-freertos-debug/obj/can_porting.o
 .comment       0x000000000000002d       0x2e /home/junghyun/topst/cr5-bsp/sources/build/tcc805x/gcc/tcc805x-freertos-debug/obj/clock_dev.o
 .comment       0x000000000000002d       0x2e /home/junghyun/topst/cr5-bsp/sources/build/tcc805x/gcc/tcc805x-freertos-debug/obj/debug.o
 .comment       0x000000000000002d       0x2e /home/junghyun/topst/cr5-bsp/sources/build/tcc805x/gcc/tcc805x-freertos-debug/obj/bsp.o
 .comment       0x000000000000002d       0x2e /home/junghyun/topst/cr5-bsp/sources/build/tcc805x/gcc/tcc805x-freertos-debug/obj/fmu.o
 .comment       0x000000000000002d       0x2e /home/junghyun/topst/cr5-bsp/sources/build/tcc805x/gcc/tcc805x-freertos-debug/obj/gdma.o
 .comment       0x000000000000002d       0x2e /home/junghyun/topst/cr5-bsp/sources/build/tcc805x/gcc/tcc805x-freertos-debug/obj/gic.o
 .comment       0x000000000000002d       0x2e /home/junghyun/topst/cr5-bsp/sources/build/tcc805x/gcc/tcc805x-freertos-debug/obj/gpio.o
 .comment       0x000000000000002d       0x2e /home/junghyun/topst/cr5-bsp/sources/build/tcc805x/gcc/tcc805x-freertos-debug/obj/i2c.o
 .comment       0x000000000000002d       0x2e /home/junghyun/topst/cr5-bsp/sources/build/tcc805x/gcc/tcc805x-freertos-debug/obj/i2c_reg.o
 .comment       0x000000000000002d       0x2e /home/junghyun/topst/cr5-bsp/sources/build/tcc805x/gcc/tcc805x-freertos-debug/obj/ictc.o
 .comment       0x000000000000002d       0x2e /home/junghyun/topst/cr5-bsp/sources/build/tcc805x/gcc/tcc805x-freertos-debug/obj/mbox_phy.o
 .comment       0x000000000000002d       0x2e /home/junghyun/topst/cr5-bsp/sources/build/tcc805x/gcc/tcc805x-freertos-debug/obj/mbox_dev.o
 .comment       0x000000000000002d       0x2e /home/junghyun/topst/cr5-bsp/sources/build/tcc805x/gcc/tcc805x-freertos-debug/obj/mbox.o
 .comment       0x000000000000002d       0x2e /home/junghyun/topst/cr5-bsp/sources/build/tcc805x/gcc/tcc805x-freertos-debug/obj/mpu.o
 .comment       0x000000000000002d       0x2e /home/junghyun/topst/cr5-bsp/sources/build/tcc805x/gcc/tcc805x-freertos-debug/obj/pdm.o
 .comment       0x000000000000002d       0x2e /home/junghyun/topst/cr5-bsp/sources/build/tcc805x/gcc/tcc805x-freertos-debug/obj/pmio_dev.o
 .comment       0x000000000000002d       0x2e /home/junghyun/topst/cr5-bsp/sources/build/tcc805x/gcc/tcc805x-freertos-debug/obj/gpsb.o
 .comment       0x000000000000002d       0x2e /home/junghyun/topst/cr5-bsp/sources/build/tcc805x/gcc/tcc805x-freertos-debug/obj/gpsb_reg.o
 .comment       0x000000000000002d       0x2e /home/junghyun/topst/cr5-bsp/sources/build/tcc805x/gcc/tcc805x-freertos-debug/obj/timer.o
 .comment       0x000000000000002d       0x2e /home/junghyun/topst/cr5-bsp/sources/build/tcc805x/gcc/tcc805x-freertos-debug/obj/uart.o
 .comment       0x000000000000002d       0x2e /home/junghyun/topst/cr5-bsp/sources/build/tcc805x/gcc/tcc805x-freertos-debug/obj/udma.o
 .comment       0x000000000000002d       0x2e /home/junghyun/topst/cr5-bsp/sources/build/tcc805x/gcc/tcc805x-freertos-debug/obj/wdt.o
 .comment       0x000000000000002d       0x2e /home/junghyun/topst/cr5-bsp/sources/build/tcc805x/gcc/tcc805x-freertos-debug/obj/dse.o
 .comment       0x000000000000002d       0x2e /home/junghyun/topst/cr5-bsp/sources/build/tcc805x/gcc/tcc805x-freertos-debug/obj/midf.o
 .comment       0x000000000000002d       0x2e /home/junghyun/topst/cr5-bsp/sources/build/tcc805x/gcc/tcc805x-freertos-debug/obj/pmu_reset.o
 .comment       0x000000000000002d       0x2e /home/junghyun/topst/cr5-bsp/sources/build/tcc805x/gcc/tcc805x-freertos-debug/obj/tasks.o
 .comment       0x000000000000002d       0x2e /home/junghyun/topst/cr5-bsp/sources/build/tcc805x/gcc/tcc805x-freertos-debug/obj/list.o
 .comment       0x000000000000002d       0x2e /home/junghyun/topst/cr5-bsp/sources/build/tcc805x/gcc/tcc805x-freertos-debug/obj/queue.o
 .comment       0x000000000000002d       0x2e /home/junghyun/topst/cr5-bsp/sources/build/tcc805x/gcc/tcc805x-freertos-debug/obj/event_groups.o
 .comment       0x000000000000002d       0x2e /home/junghyun/topst/cr5-bsp/sources/build/tcc805x/gcc/tcc805x-freertos-debug/obj/timers.o
 .comment       0x000000000000002d       0x2e /home/junghyun/topst/cr5-bsp/sources/build/tcc805x/gcc/tcc805x-freertos-debug/obj/stream_buffer.o
 .comment       0x000000000000002d       0x2e /home/junghyun/topst/cr5-bsp/sources/build/tcc805x/gcc/tcc805x-freertos-debug/obj/port.o
 .comment       0x000000000000002d       0x2e /home/junghyun/topst/cr5-bsp/sources/build/tcc805x/gcc/tcc805x-freertos-debug/obj/heap_5.o
 .comment       0x000000000000002d       0x2e /home/junghyun/topst/cr5-bsp/sources/build/tcc805x/gcc/tcc805x-freertos-debug/obj/sal_api.o
 .comment       0x000000000000002d       0x2e /home/junghyun/topst/cr5-bsp/sources/build/tcc805x/gcc/tcc805x-freertos-debug/obj/sal_freertos_impl.o
 .comment       0x000000000000002d       0x2e /home/junghyun/topst/cr5-bsp/sources/build/tcc805x/gcc/tcc805x-freertos-debug/obj/project_ipc.o
 .comment       0x000000000000002d       0x2e /home/junghyun/topst/cr5-bsp/sources/build/tcc805x/gcc/tcc805x-freertos-debug/obj/project_i2c.o
 .comment       0x000000000000002d       0x2e /home/junghyun/topst/buildtools/gcc-linaro-7.2.1-2017.11-x86_64_arm-eabi/arm-eabi/libc/usr/lib/libc.a(lib_a-atoi.o)
 .comment       0x000000000000002d       0x2e /home/junghyun/topst/buildtools/gcc-linaro-7.2.1-2017.11-x86_64_arm-eabi/arm-eabi/libc/usr/lib/libc.a(lib_a-atol.o)
 .comment       0x000000000000002d       0x2e /home/junghyun/topst/buildtools/gcc-linaro-7.2.1-2017.11-x86_64_arm-eabi/arm-eabi/libc/usr/lib/libc.a(lib_a-memcmp.o)
 .comment       0x000000000000002d       0x2e /home/junghyun/topst/buildtools/gcc-linaro-7.2.1-2017.11-x86_64_arm-eabi/arm-eabi/libc/usr/lib/libc.a(lib_a-memcpy-stub.o)
 .comment       0x000000000000002d       0x2e /home/junghyun/topst/buildtools/gcc-linaro-7.2.1-2017.11-x86_64_arm-eabi/arm-eabi/libc/usr/lib/libc.a(lib_a-memset.o)
 .comment       0x000000000000002d       0x2e /home/junghyun/topst/buildtools/gcc-linaro-7.2.1-2017.11-x86_64_arm-eabi/arm-eabi/libc/usr/lib/libc.a(lib_a-strlen-stub.o)
 .comment       0x000000000000002d       0x2e /home/junghyun/topst/buildtools/gcc-linaro-7.2.1-2017.11-x86_64_arm-eabi/arm-eabi/libc/usr/lib/libc.a(lib_a-strncmp.o)
 .comment       0x000000000000002d       0x2e /home/junghyun/topst/buildtools/gcc-linaro-7.2.1-2017.11-x86_64_arm-eabi/arm-eabi/libc/usr/lib/libc.a(lib_a-strncpy.o)
 .comment       0x000000000000002d       0x2e /home/junghyun/topst/buildtools/gcc-linaro-7.2.1-2017.11-x86_64_arm-eabi/arm-eabi/libc/usr/lib/libc.a(lib_a-strnlen.o)
 .comment       0x000000000000002d       0x2e /home/junghyun/topst/buildtools/gcc-linaro-7.2.1-2017.11-x86_64_arm-eabi/arm-eabi/libc/usr/lib/libc.a(lib_a-strtol.o)
 .comment       0x000000000000002d       0x2e /home/junghyun/topst/buildtools/gcc-linaro-7.2.1-2017.11-x86_64_arm-eabi/arm-eabi/libc/usr/lib/libc.a(lib_a-strtoul.o)
 .comment       0x000000000000002d       0x2e /home/junghyun/topst/buildtools/gcc-linaro-7.2.1-2017.11-x86_64_arm-eabi/arm-eabi/libc/usr/lib/libc.a(lib_a-impure.o)
 .comment       0x000000000000002d       0x2e /home/junghyun/topst/buildtools/gcc-linaro-7.2.1-2017.11-x86_64_arm-eabi/arm-eabi/libc/usr/lib/libc.a(lib_a-locale.o)
 .comment       0x000000000000002d       0x2e /home/junghyun/topst/buildtools/gcc-linaro-7.2.1-2017.11-x86_64_arm-eabi/arm-eabi/libc/usr/lib/libc.a(lib_a-mbtowc_r.o)
 .comment       0x000000000000002d       0x2e /home/junghyun/topst/buildtools/gcc-linaro-7.2.1-2017.11-x86_64_arm-eabi/arm-eabi/libc/usr/lib/libc.a(lib_a-strcasecmp.o)
 .comment       0x000000000000002d       0x2e /home/junghyun/topst/buildtools/gcc-linaro-7.2.1-2017.11-x86_64_arm-eabi/arm-eabi/libc/usr/lib/libc.a(lib_a-strcat.o)
 .comment       0x000000000000002d       0x2e /home/junghyun/topst/buildtools/gcc-linaro-7.2.1-2017.11-x86_64_arm-eabi/arm-eabi/libc/usr/lib/libc.a(lib_a-strchr.o)
 .comment       0x000000000000002d       0x2e /home/junghyun/topst/buildtools/gcc-linaro-7.2.1-2017.11-x86_64_arm-eabi/arm-eabi/libc/usr/lib/libc.a(lib_a-strcpy.o)
 .comment       0x000000000000002d       0x2e /home/junghyun/topst/buildtools/gcc-linaro-7.2.1-2017.11-x86_64_arm-eabi/arm-eabi/libc/usr/lib/libc.a(lib_a-strlcpy.o)
 .comment       0x000000000000002d       0x2e /home/junghyun/topst/buildtools/gcc-linaro-7.2.1-2017.11-x86_64_arm-eabi/arm-eabi/libc/usr/lib/libc.a(lib_a-strncasecmp.o)
 .comment       0x000000000000002d       0x2e /home/junghyun/topst/buildtools/gcc-linaro-7.2.1-2017.11-x86_64_arm-eabi/arm-eabi/libc/usr/lib/libc.a(lib_a-wctomb_r.o)
 .comment       0x000000000000002d       0x2e /home/junghyun/topst/buildtools/gcc-linaro-7.2.1-2017.11-x86_64_arm-eabi/arm-eabi/libc/usr/lib/libc.a(lib_a-ctype_.o)
 .comment       0x000000000000002d       0x2e /home/junghyun/topst/buildtools/gcc-linaro-7.2.1-2017.11-x86_64_arm-eabi/arm-eabi/libc/usr/lib/libc.a(lib_a-getenv_r.o)
 .comment       0x000000000000002d       0x2e /home/junghyun/topst/buildtools/gcc-linaro-7.2.1-2017.11-x86_64_arm-eabi/arm-eabi/libc/usr/lib/libc.a(lib_a-environ.o)
 .comment       0x000000000000002d       0x2e /home/junghyun/topst/buildtools/gcc-linaro-7.2.1-2017.11-x86_64_arm-eabi/arm-eabi/libc/usr/lib/libc.a(lib_a-envlock.o)
 .comment       0x000000000000002d       0x2e /home/junghyun/topst/buildtools/gcc-linaro-7.2.1-2017.11-x86_64_arm-eabi/arm-eabi/libc/usr/lib/libgcc.a(_udivmoddi4.o)

.ARM.attributes
                0x0000000000000000       0x35
 .ARM.attributes
                0x0000000000000000       0x37 /home/junghyun/topst/cr5-bsp/sources/build/tcc805x/gcc/tcc805x-freertos-debug/obj/main.o
 .ARM.attributes
                0x0000000000000037       0x37 /home/junghyun/topst/cr5-bsp/sources/build/tcc805x/gcc/tcc805x-freertos-debug/obj/can_demo.o
 .ARM.attributes
                0x000000000000006e       0x37 /home/junghyun/topst/cr5-bsp/sources/build/tcc805x/gcc/tcc805x-freertos-debug/obj/console.o
 .ARM.attributes
                0x00000000000000a5       0x37 /home/junghyun/topst/cr5-bsp/sources/build/tcc805x/gcc/tcc805x-freertos-debug/obj/fwug.o
 .ARM.attributes
                0x00000000000000dc       0x37 /home/junghyun/topst/cr5-bsp/sources/build/tcc805x/gcc/tcc805x-freertos-debug/obj/key_adc.o
 .ARM.attributes
                0x0000000000000113       0x37 /home/junghyun/topst/cr5-bsp/sources/build/tcc805x/gcc/tcc805x-freertos-debug/obj/key_gpio.o
 .ARM.attributes
                0x000000000000014a       0x37 /home/junghyun/topst/cr5-bsp/sources/build/tcc805x/gcc/tcc805x-freertos-debug/obj/key_i2c.o
 .ARM.attributes
                0x0000000000000181       0x37 /home/junghyun/topst/cr5-bsp/sources/build/tcc805x/gcc/tcc805x-freertos-debug/obj/key.o
 .ARM.attributes
                0x00000000000001b8       0x37 /home/junghyun/topst/cr5-bsp/sources/build/tcc805x/gcc/tcc805x-freertos-debug/obj/system_monitoring.o
 .ARM.attributes
                0x00000000000001ef       0x37 /home/junghyun/topst/cr5-bsp/sources/build/tcc805x/gcc/tcc805x-freertos-debug/obj/bootctrl.o
 .ARM.attributes
                0x0000000000000226       0x37 /home/junghyun/topst/cr5-bsp/sources/build/tcc805x/gcc/tcc805x-freertos-debug/obj/reset_demo.o
 .ARM.attributes
                0x000000000000025d       0x37 /home/junghyun/topst/cr5-bsp/sources/build/tcc805x/gcc/tcc805x-freertos-debug/obj/adc_test.o
 .ARM.attributes
                0x0000000000000294       0x37 /home/junghyun/topst/cr5-bsp/sources/build/tcc805x/gcc/tcc805x-freertos-debug/obj/dse_test.o
 .ARM.attributes
                0x00000000000002cb       0x37 /home/junghyun/topst/cr5-bsp/sources/build/tcc805x/gcc/tcc805x-freertos-debug/obj/fmu_test.o
 .ARM.attributes
                0x0000000000000302       0x37 /home/junghyun/topst/cr5-bsp/sources/build/tcc805x/gcc/tcc805x-freertos-debug/obj/gdma_test.o
 .ARM.attributes
                0x0000000000000339       0x37 /home/junghyun/topst/cr5-bsp/sources/build/tcc805x/gcc/tcc805x-freertos-debug/obj/gic_test.o
 .ARM.attributes
                0x0000000000000370       0x37 /home/junghyun/topst/cr5-bsp/sources/build/tcc805x/gcc/tcc805x-freertos-debug/obj/gpio_test.o
 .ARM.attributes
                0x00000000000003a7       0x37 /home/junghyun/topst/cr5-bsp/sources/build/tcc805x/gcc/tcc805x-freertos-debug/obj/gpsb_test.o
 .ARM.attributes
                0x00000000000003de       0x37 /home/junghyun/topst/cr5-bsp/sources/build/tcc805x/gcc/tcc805x-freertos-debug/obj/hsm_test.o
 .ARM.attributes
                0x0000000000000415       0x37 /home/junghyun/topst/cr5-bsp/sources/build/tcc805x/gcc/tcc805x-freertos-debug/obj/i2c_test.o
 .ARM.attributes
                0x000000000000044c       0x37 /home/junghyun/topst/cr5-bsp/sources/build/tcc805x/gcc/tcc805x-freertos-debug/obj/ictc_test.o
 .ARM.attributes
                0x0000000000000483       0x37 /home/junghyun/topst/cr5-bsp/sources/build/tcc805x/gcc/tcc805x-freertos-debug/obj/lin_test.o
 .ARM.attributes
                0x00000000000004ba       0x37 /home/junghyun/topst/cr5-bsp/sources/build/tcc805x/gcc/tcc805x-freertos-debug/obj/pdm_test.o
 .ARM.attributes
                0x00000000000004f1       0x37 /home/junghyun/topst/cr5-bsp/sources/build/tcc805x/gcc/tcc805x-freertos-debug/obj/pmio_test.o
 .ARM.attributes
                0x0000000000000528       0x37 /home/junghyun/topst/cr5-bsp/sources/build/tcc805x/gcc/tcc805x-freertos-debug/obj/timer_test.o
 .ARM.attributes
                0x000000000000055f       0x37 /home/junghyun/topst/cr5-bsp/sources/build/tcc805x/gcc/tcc805x-freertos-debug/obj/wdt_test.o
 .ARM.attributes
                0x0000000000000596       0x37 /home/junghyun/topst/cr5-bsp/sources/build/tcc805x/gcc/tcc805x-freertos-debug/obj/mptool.o
 .ARM.attributes
                0x00000000000005cd       0x37 /home/junghyun/topst/cr5-bsp/sources/build/tcc805x/gcc/tcc805x-freertos-debug/obj/ipc_os.o
 .ARM.attributes
                0x0000000000000604       0x37 /home/junghyun/topst/cr5-bsp/sources/build/tcc805x/gcc/tcc805x-freertos-debug/obj/ipc_buffer.o
 .ARM.attributes
                0x000000000000063b       0x37 /home/junghyun/topst/cr5-bsp/sources/build/tcc805x/gcc/tcc805x-freertos-debug/obj/ipc_cmd.o
 .ARM.attributes
                0x0000000000000672       0x37 /home/junghyun/topst/cr5-bsp/sources/build/tcc805x/gcc/tcc805x-freertos-debug/obj/ipc_ctl.o
 .ARM.attributes
                0x00000000000006a9       0x37 /home/junghyun/topst/cr5-bsp/sources/build/tcc805x/gcc/tcc805x-freertos-debug/obj/ipc_parser.o
 .ARM.attributes
                0x00000000000006e0       0x37 /home/junghyun/topst/cr5-bsp/sources/build/tcc805x/gcc/tcc805x-freertos-debug/obj/ipc_api.o
 .ARM.attributes
                0x0000000000000717       0x37 /home/junghyun/topst/cr5-bsp/sources/build/tcc805x/gcc/tcc805x-freertos-debug/obj/ipc.o
 .ARM.attributes
                0x000000000000074e       0x37 /home/junghyun/topst/cr5-bsp/sources/build/tcc805x/gcc/tcc805x-freertos-debug/obj/lin.o
 .ARM.attributes
                0x0000000000000785       0x37 /home/junghyun/topst/cr5-bsp/sources/build/tcc805x/gcc/tcc805x-freertos-debug/obj/sdm.o
 .ARM.attributes
                0x00000000000007bc       0x37 /home/junghyun/topst/cr5-bsp/sources/build/tcc805x/gcc/tcc805x-freertos-debug/obj/hsm_manager.o
 .ARM.attributes
                0x00000000000007f3       0x37 /home/junghyun/topst/cr5-bsp/sources/build/tcc805x/gcc/tcc805x-freertos-debug/obj/adc.o
 .ARM.attributes
                0x000000000000082a       0x37 /home/junghyun/topst/cr5-bsp/sources/build/tcc805x/gcc/tcc805x-freertos-debug/obj/can.o
 .ARM.attributes
                0x0000000000000861       0x37 /home/junghyun/topst/cr5-bsp/sources/build/tcc805x/gcc/tcc805x-freertos-debug/obj/can_drv.o
 .ARM.attributes
                0x0000000000000898       0x37 /home/junghyun/topst/cr5-bsp/sources/build/tcc805x/gcc/tcc805x-freertos-debug/obj/can_msg.o
 .ARM.attributes
                0x00000000000008cf       0x37 /home/junghyun/topst/cr5-bsp/sources/build/tcc805x/gcc/tcc805x-freertos-debug/obj/can_par.o
 .ARM.attributes
                0x0000000000000906       0x37 /home/junghyun/topst/cr5-bsp/sources/build/tcc805x/gcc/tcc805x-freertos-debug/obj/can_porting.o
 .ARM.attributes
                0x000000000000093d       0x37 /home/junghyun/topst/cr5-bsp/sources/build/tcc805x/gcc/tcc805x-freertos-debug/obj/clock_dev.o
 .ARM.attributes
                0x0000000000000974       0x37 /home/junghyun/topst/cr5-bsp/sources/build/tcc805x/gcc/tcc805x-freertos-debug/obj/debug.o
 .ARM.attributes
                0x00000000000009ab       0x37 /home/junghyun/topst/cr5-bsp/sources/build/tcc805x/gcc/tcc805x-freertos-debug/obj/bsp.o
 .ARM.attributes
                0x00000000000009e2       0x37 /home/junghyun/topst/cr5-bsp/sources/build/tcc805x/gcc/tcc805x-freertos-debug/obj/fmu.o
 .ARM.attributes
                0x0000000000000a19       0x37 /home/junghyun/topst/cr5-bsp/sources/build/tcc805x/gcc/tcc805x-freertos-debug/obj/gdma.o
 .ARM.attributes
                0x0000000000000a50       0x37 /home/junghyun/topst/cr5-bsp/sources/build/tcc805x/gcc/tcc805x-freertos-debug/obj/gic.o
 .ARM.attributes
                0x0000000000000a87       0x37 /home/junghyun/topst/cr5-bsp/sources/build/tcc805x/gcc/tcc805x-freertos-debug/obj/gpio.o
 .ARM.attributes
                0x0000000000000abe       0x37 /home/junghyun/topst/cr5-bsp/sources/build/tcc805x/gcc/tcc805x-freertos-debug/obj/i2c.o
 .ARM.attributes
                0x0000000000000af5       0x37 /home/junghyun/topst/cr5-bsp/sources/build/tcc805x/gcc/tcc805x-freertos-debug/obj/i2c_reg.o
 .ARM.attributes
                0x0000000000000b2c       0x37 /home/junghyun/topst/cr5-bsp/sources/build/tcc805x/gcc/tcc805x-freertos-debug/obj/ictc.o
 .ARM.attributes
                0x0000000000000b63       0x37 /home/junghyun/topst/cr5-bsp/sources/build/tcc805x/gcc/tcc805x-freertos-debug/obj/mbox_phy.o
 .ARM.attributes
                0x0000000000000b9a       0x37 /home/junghyun/topst/cr5-bsp/sources/build/tcc805x/gcc/tcc805x-freertos-debug/obj/mbox_dev.o
 .ARM.attributes
                0x0000000000000bd1       0x37 /home/junghyun/topst/cr5-bsp/sources/build/tcc805x/gcc/tcc805x-freertos-debug/obj/mbox.o
 .ARM.attributes
                0x0000000000000c08       0x37 /home/junghyun/topst/cr5-bsp/sources/build/tcc805x/gcc/tcc805x-freertos-debug/obj/mpu.o
 .ARM.attributes
                0x0000000000000c3f       0x37 /home/junghyun/topst/cr5-bsp/sources/build/tcc805x/gcc/tcc805x-freertos-debug/obj/pdm.o
 .ARM.attributes
                0x0000000000000c76       0x37 /home/junghyun/topst/cr5-bsp/sources/build/tcc805x/gcc/tcc805x-freertos-debug/obj/pmio_dev.o
 .ARM.attributes
                0x0000000000000cad       0x37 /home/junghyun/topst/cr5-bsp/sources/build/tcc805x/gcc/tcc805x-freertos-debug/obj/gpsb.o
 .ARM.attributes
                0x0000000000000ce4       0x37 /home/junghyun/topst/cr5-bsp/sources/build/tcc805x/gcc/tcc805x-freertos-debug/obj/gpsb_reg.o
 .ARM.attributes
                0x0000000000000d1b       0x37 /home/junghyun/topst/cr5-bsp/sources/build/tcc805x/gcc/tcc805x-freertos-debug/obj/timer.o
 .ARM.attributes
                0x0000000000000d52       0x37 /home/junghyun/topst/cr5-bsp/sources/build/tcc805x/gcc/tcc805x-freertos-debug/obj/uart.o
 .ARM.attributes
                0x0000000000000d89       0x37 /home/junghyun/topst/cr5-bsp/sources/build/tcc805x/gcc/tcc805x-freertos-debug/obj/udma.o
 .ARM.attributes
                0x0000000000000dc0       0x37 /home/junghyun/topst/cr5-bsp/sources/build/tcc805x/gcc/tcc805x-freertos-debug/obj/wdt.o
 .ARM.attributes
                0x0000000000000df7       0x37 /home/junghyun/topst/cr5-bsp/sources/build/tcc805x/gcc/tcc805x-freertos-debug/obj/dse.o
 .ARM.attributes
                0x0000000000000e2e       0x37 /home/junghyun/topst/cr5-bsp/sources/build/tcc805x/gcc/tcc805x-freertos-debug/obj/midf.o
 .ARM.attributes
                0x0000000000000e65       0x37 /home/junghyun/topst/cr5-bsp/sources/build/tcc805x/gcc/tcc805x-freertos-debug/obj/pmu_reset.o
 .ARM.attributes
                0x0000000000000e9c       0x37 /home/junghyun/topst/cr5-bsp/sources/build/tcc805x/gcc/tcc805x-freertos-debug/obj/tasks.o
 .ARM.attributes
                0x0000000000000ed3       0x37 /home/junghyun/topst/cr5-bsp/sources/build/tcc805x/gcc/tcc805x-freertos-debug/obj/list.o
 .ARM.attributes
                0x0000000000000f0a       0x37 /home/junghyun/topst/cr5-bsp/sources/build/tcc805x/gcc/tcc805x-freertos-debug/obj/queue.o
 .ARM.attributes
                0x0000000000000f41       0x37 /home/junghyun/topst/cr5-bsp/sources/build/tcc805x/gcc/tcc805x-freertos-debug/obj/event_groups.o
 .ARM.attributes
                0x0000000000000f78       0x37 /home/junghyun/topst/cr5-bsp/sources/build/tcc805x/gcc/tcc805x-freertos-debug/obj/timers.o
 .ARM.attributes
                0x0000000000000faf       0x37 /home/junghyun/topst/cr5-bsp/sources/build/tcc805x/gcc/tcc805x-freertos-debug/obj/stream_buffer.o
 .ARM.attributes
                0x0000000000000fe6       0x37 /home/junghyun/topst/cr5-bsp/sources/build/tcc805x/gcc/tcc805x-freertos-debug/obj/port.o
 .ARM.attributes
                0x000000000000101d       0x37 /home/junghyun/topst/cr5-bsp/sources/build/tcc805x/gcc/tcc805x-freertos-debug/obj/heap_5.o
 .ARM.attributes
                0x0000000000001054       0x37 /home/junghyun/topst/cr5-bsp/sources/build/tcc805x/gcc/tcc805x-freertos-debug/obj/sal_api.o
 .ARM.attributes
                0x000000000000108b       0x37 /home/junghyun/topst/cr5-bsp/sources/build/tcc805x/gcc/tcc805x-freertos-debug/obj/sal_freertos_impl.o
 .ARM.attributes
                0x00000000000010c2       0x37 /home/junghyun/topst/cr5-bsp/sources/build/tcc805x/gcc/tcc805x-freertos-debug/obj/project_ipc.o
 .ARM.attributes
                0x00000000000010f9       0x37 /home/junghyun/topst/cr5-bsp/sources/build/tcc805x/gcc/tcc805x-freertos-debug/obj/project_i2c.o
 .ARM.attributes
                0x0000000000001130       0x25 /home/junghyun/topst/cr5-bsp/sources/build/tcc805x/gcc/tcc805x-freertos-debug/obj/startup.o
 .ARM.attributes
                0x0000000000001155       0x25 /home/junghyun/topst/cr5-bsp/sources/build/tcc805x/gcc/tcc805x-freertos-debug/obj/vector.o
 .ARM.attributes
                0x000000000000117a       0x25 /home/junghyun/topst/cr5-bsp/sources/build/tcc805x/gcc/tcc805x-freertos-debug/obj/vfp_init.o
 .ARM.attributes
                0x000000000000119f       0x25 /home/junghyun/topst/cr5-bsp/sources/build/tcc805x/gcc/tcc805x-freertos-debug/obj/arm_a.o
 .ARM.attributes
                0x00000000000011c4       0x25 /home/junghyun/topst/cr5-bsp/sources/build/tcc805x/gcc/tcc805x-freertos-debug/obj/portASM.o
 .ARM.attributes
                0x00000000000011e9       0x25 /home/junghyun/topst/cr5-bsp/sources/build/tcc805x/gcc/tcc805x-freertos-debug/obj/freertos.o
 .ARM.attributes
                0x000000000000120e       0x25 /home/junghyun/topst/cr5-bsp/sources/build/tcc805x/gcc/tcc805x-freertos-debug/obj/sal.o
 .ARM.attributes
                0x0000000000001233       0x30 /home/junghyun/topst/buildtools/gcc-linaro-7.2.1-2017.11-x86_64_arm-eabi/arm-eabi/libc/usr/lib/libc.a(lib_a-atoi.o)
 .ARM.attributes
                0x0000000000001263       0x30 /home/junghyun/topst/buildtools/gcc-linaro-7.2.1-2017.11-x86_64_arm-eabi/arm-eabi/libc/usr/lib/libc.a(lib_a-atol.o)
 .ARM.attributes
                0x0000000000001293       0x30 /home/junghyun/topst/buildtools/gcc-linaro-7.2.1-2017.11-x86_64_arm-eabi/arm-eabi/libc/usr/lib/libc.a(lib_a-memcmp.o)
 .ARM.attributes
                0x00000000000012c3       0x30 /home/junghyun/topst/buildtools/gcc-linaro-7.2.1-2017.11-x86_64_arm-eabi/arm-eabi/libc/usr/lib/libc.a(lib_a-memcpy-stub.o)
 .ARM.attributes
                0x00000000000012f3       0x30 /home/junghyun/topst/buildtools/gcc-linaro-7.2.1-2017.11-x86_64_arm-eabi/arm-eabi/libc/usr/lib/libc.a(lib_a-memset.o)
 .ARM.attributes
                0x0000000000001323       0x30 /home/junghyun/topst/buildtools/gcc-linaro-7.2.1-2017.11-x86_64_arm-eabi/arm-eabi/libc/usr/lib/libc.a(lib_a-strlen-stub.o)
 .ARM.attributes
                0x0000000000001353       0x30 /home/junghyun/topst/buildtools/gcc-linaro-7.2.1-2017.11-x86_64_arm-eabi/arm-eabi/libc/usr/lib/libc.a(lib_a-strncmp.o)
 .ARM.attributes
                0x0000000000001383       0x30 /home/junghyun/topst/buildtools/gcc-linaro-7.2.1-2017.11-x86_64_arm-eabi/arm-eabi/libc/usr/lib/libc.a(lib_a-strncpy.o)
 .ARM.attributes
                0x00000000000013b3       0x30 /home/junghyun/topst/buildtools/gcc-linaro-7.2.1-2017.11-x86_64_arm-eabi/arm-eabi/libc/usr/lib/libc.a(lib_a-strnlen.o)
 .ARM.attributes
                0x00000000000013e3       0x30 /home/junghyun/topst/buildtools/gcc-linaro-7.2.1-2017.11-x86_64_arm-eabi/arm-eabi/libc/usr/lib/libc.a(lib_a-strtol.o)
 .ARM.attributes
                0x0000000000001413       0x30 /home/junghyun/topst/buildtools/gcc-linaro-7.2.1-2017.11-x86_64_arm-eabi/arm-eabi/libc/usr/lib/libc.a(lib_a-strtoul.o)
 .ARM.attributes
                0x0000000000001443       0x30 /home/junghyun/topst/buildtools/gcc-linaro-7.2.1-2017.11-x86_64_arm-eabi/arm-eabi/libc/usr/lib/libc.a(lib_a-impure.o)
 .ARM.attributes
                0x0000000000001473       0x30 /home/junghyun/topst/buildtools/gcc-linaro-7.2.1-2017.11-x86_64_arm-eabi/arm-eabi/libc/usr/lib/libc.a(lib_a-locale.o)
 .ARM.attributes
                0x00000000000014a3       0x30 /home/junghyun/topst/buildtools/gcc-linaro-7.2.1-2017.11-x86_64_arm-eabi/arm-eabi/libc/usr/lib/libc.a(lib_a-mbtowc_r.o)
 .ARM.attributes
                0x00000000000014d3       0x30 /home/junghyun/topst/buildtools/gcc-linaro-7.2.1-2017.11-x86_64_arm-eabi/arm-eabi/libc/usr/lib/libc.a(lib_a-strcasecmp.o)
 .ARM.attributes
                0x0000000000001503       0x30 /home/junghyun/topst/buildtools/gcc-linaro-7.2.1-2017.11-x86_64_arm-eabi/arm-eabi/libc/usr/lib/libc.a(lib_a-strcat.o)
 .ARM.attributes
                0x0000000000001533       0x30 /home/junghyun/topst/buildtools/gcc-linaro-7.2.1-2017.11-x86_64_arm-eabi/arm-eabi/libc/usr/lib/libc.a(lib_a-strchr.o)
 .ARM.attributes
                0x0000000000001563       0x16 /home/junghyun/topst/buildtools/gcc-linaro-7.2.1-2017.11-x86_64_arm-eabi/arm-eabi/libc/usr/lib/libc.a(lib_a-strcmp.o)
 .ARM.attributes
                0x0000000000001579       0x30 /home/junghyun/topst/buildtools/gcc-linaro-7.2.1-2017.11-x86_64_arm-eabi/arm-eabi/libc/usr/lib/libc.a(lib_a-strcpy.o)
 .ARM.attributes
                0x00000000000015a9       0x30 /home/junghyun/topst/buildtools/gcc-linaro-7.2.1-2017.11-x86_64_arm-eabi/arm-eabi/libc/usr/lib/libc.a(lib_a-strlcpy.o)
 .ARM.attributes
                0x00000000000015d9       0x30 /home/junghyun/topst/buildtools/gcc-linaro-7.2.1-2017.11-x86_64_arm-eabi/arm-eabi/libc/usr/lib/libc.a(lib_a-strncasecmp.o)
 .ARM.attributes
                0x0000000000001609       0x30 /home/junghyun/topst/buildtools/gcc-linaro-7.2.1-2017.11-x86_64_arm-eabi/arm-eabi/libc/usr/lib/libc.a(lib_a-wctomb_r.o)
 .ARM.attributes
                0x0000000000001639       0x30 /home/junghyun/topst/buildtools/gcc-linaro-7.2.1-2017.11-x86_64_arm-eabi/arm-eabi/libc/usr/lib/libc.a(lib_a-ctype_.o)
 .ARM.attributes
                0x0000000000001669       0x30 /home/junghyun/topst/buildtools/gcc-linaro-7.2.1-2017.11-x86_64_arm-eabi/arm-eabi/libc/usr/lib/libc.a(lib_a-getenv_r.o)
 .ARM.attributes
                0x0000000000001699       0x30 /home/junghyun/topst/buildtools/gcc-linaro-7.2.1-2017.11-x86_64_arm-eabi/arm-eabi/libc/usr/lib/libc.a(lib_a-environ.o)
 .ARM.attributes
                0x00000000000016c9       0x30 /home/junghyun/topst/buildtools/gcc-linaro-7.2.1-2017.11-x86_64_arm-eabi/arm-eabi/libc/usr/lib/libc.a(lib_a-envlock.o)
 .ARM.attributes
                0x00000000000016f9       0x18 /home/junghyun/topst/buildtools/gcc-linaro-7.2.1-2017.11-x86_64_arm-eabi/arm-eabi/libc/usr/lib/libgcc.a(_udivsi3.o)
 .ARM.attributes
                0x0000000000001711       0x18 /home/junghyun/topst/buildtools/gcc-linaro-7.2.1-2017.11-x86_64_arm-eabi/arm-eabi/libc/usr/lib/libgcc.a(_dvmd_tls.o)
 .ARM.attributes
                0x0000000000001729       0x18 /home/junghyun/topst/buildtools/gcc-linaro-7.2.1-2017.11-x86_64_arm-eabi/arm-eabi/libc/usr/lib/libgcc.a(_aeabi_uldivmod.o)
 .ARM.attributes
                0x0000000000001741       0x30 /home/junghyun/topst/buildtools/gcc-linaro-7.2.1-2017.11-x86_64_arm-eabi/arm-eabi/libc/usr/lib/libgcc.a(_udivmoddi4.o)
 .ARM.attributes
                0x0000000000001771       0x18 /home/junghyun/topst/buildtools/gcc-linaro-7.2.1-2017.11-x86_64_arm-eabi/arm-eabi/libc/usr/lib/libgcc.a(_clzdi2.o)
 .ARM.attributes
                0x0000000000001789       0x18 /home/junghyun/topst/buildtools/gcc-linaro-7.2.1-2017.11-x86_64_arm-eabi/arm-eabi/libc/usr/lib/libgcc.a(_clzsi2.o)

.debug_frame    0x0000000000000000     0x9e18
 .debug_frame   0x0000000000000000       0x88 /home/junghyun/topst/cr5-bsp/sources/build/tcc805x/gcc/tcc805x-freertos-debug/obj/main.o
 .debug_frame   0x0000000000000088      0x17c /home/junghyun/topst/cr5-bsp/sources/build/tcc805x/gcc/tcc805x-freertos-debug/obj/can_demo.o
 .debug_frame   0x0000000000000204      0x650 /home/junghyun/topst/cr5-bsp/sources/build/tcc805x/gcc/tcc805x-freertos-debug/obj/console.o
 .debug_frame   0x0000000000000854       0x94 /home/junghyun/topst/cr5-bsp/sources/build/tcc805x/gcc/tcc805x-freertos-debug/obj/fwug.o
 .debug_frame   0x00000000000008e8       0x9c /home/junghyun/topst/cr5-bsp/sources/build/tcc805x/gcc/tcc805x-freertos-debug/obj/key_adc.o
 .debug_frame   0x0000000000000984       0xd0 /home/junghyun/topst/cr5-bsp/sources/build/tcc805x/gcc/tcc805x-freertos-debug/obj/key_gpio.o
 .debug_frame   0x0000000000000a54       0xd4 /home/junghyun/topst/cr5-bsp/sources/build/tcc805x/gcc/tcc805x-freertos-debug/obj/key_i2c.o
 .debug_frame   0x0000000000000b28      0x10c /home/junghyun/topst/cr5-bsp/sources/build/tcc805x/gcc/tcc805x-freertos-debug/obj/key.o
 .debug_frame   0x0000000000000c34       0xb0 /home/junghyun/topst/cr5-bsp/sources/build/tcc805x/gcc/tcc805x-freertos-debug/obj/system_monitoring.o
 .debug_frame   0x0000000000000ce4       0xd8 /home/junghyun/topst/cr5-bsp/sources/build/tcc805x/gcc/tcc805x-freertos-debug/obj/bootctrl.o
 .debug_frame   0x0000000000000dbc       0x34 /home/junghyun/topst/cr5-bsp/sources/build/tcc805x/gcc/tcc805x-freertos-debug/obj/reset_demo.o
 .debug_frame   0x0000000000000df0       0x78 /home/junghyun/topst/cr5-bsp/sources/build/tcc805x/gcc/tcc805x-freertos-debug/obj/dse_test.o
 .debug_frame   0x0000000000000e68       0xf0 /home/junghyun/topst/cr5-bsp/sources/build/tcc805x/gcc/tcc805x-freertos-debug/obj/fmu_test.o
 .debug_frame   0x0000000000000f58       0x34 /home/junghyun/topst/cr5-bsp/sources/build/tcc805x/gcc/tcc805x-freertos-debug/obj/gdma_test.o
 .debug_frame   0x0000000000000f8c       0x70 /home/junghyun/topst/cr5-bsp/sources/build/tcc805x/gcc/tcc805x-freertos-debug/obj/gic_test.o
 .debug_frame   0x0000000000000ffc       0x78 /home/junghyun/topst/cr5-bsp/sources/build/tcc805x/gcc/tcc805x-freertos-debug/obj/gpio_test.o
 .debug_frame   0x0000000000001074      0x208 /home/junghyun/topst/cr5-bsp/sources/build/tcc805x/gcc/tcc805x-freertos-debug/obj/gpsb_test.o
 .debug_frame   0x000000000000127c      0x258 /home/junghyun/topst/cr5-bsp/sources/build/tcc805x/gcc/tcc805x-freertos-debug/obj/hsm_test.o
 .debug_frame   0x00000000000014d4      0x154 /home/junghyun/topst/cr5-bsp/sources/build/tcc805x/gcc/tcc805x-freertos-debug/obj/i2c_test.o
 .debug_frame   0x0000000000001628       0xa8 /home/junghyun/topst/cr5-bsp/sources/build/tcc805x/gcc/tcc805x-freertos-debug/obj/ictc_test.o
 .debug_frame   0x00000000000016d0       0x50 /home/junghyun/topst/cr5-bsp/sources/build/tcc805x/gcc/tcc805x-freertos-debug/obj/lin_test.o
 .debug_frame   0x0000000000001720       0xcc /home/junghyun/topst/cr5-bsp/sources/build/tcc805x/gcc/tcc805x-freertos-debug/obj/pdm_test.o
 .debug_frame   0x00000000000017ec      0x130 /home/junghyun/topst/cr5-bsp/sources/build/tcc805x/gcc/tcc805x-freertos-debug/obj/pmio_test.o
 .debug_frame   0x000000000000191c      0x24c /home/junghyun/topst/cr5-bsp/sources/build/tcc805x/gcc/tcc805x-freertos-debug/obj/timer_test.o
 .debug_frame   0x0000000000001b68      0x210 /home/junghyun/topst/cr5-bsp/sources/build/tcc805x/gcc/tcc805x-freertos-debug/obj/wdt_test.o
 .debug_frame   0x0000000000001d78       0x50 /home/junghyun/topst/cr5-bsp/sources/build/tcc805x/gcc/tcc805x-freertos-debug/obj/mptool.o
 .debug_frame   0x0000000000001dc8      0x548 /home/junghyun/topst/cr5-bsp/sources/build/tcc805x/gcc/tcc805x-freertos-debug/obj/ipc_os.o
 .debug_frame   0x0000000000002310      0x1f8 /home/junghyun/topst/cr5-bsp/sources/build/tcc805x/gcc/tcc805x-freertos-debug/obj/ipc_buffer.o
 .debug_frame   0x0000000000002508      0x128 /home/junghyun/topst/cr5-bsp/sources/build/tcc805x/gcc/tcc805x-freertos-debug/obj/ipc_cmd.o
 .debug_frame   0x0000000000002630      0x2a4 /home/junghyun/topst/cr5-bsp/sources/build/tcc805x/gcc/tcc805x-freertos-debug/obj/ipc_ctl.o
 .debug_frame   0x00000000000028d4       0xb0 /home/junghyun/topst/cr5-bsp/sources/build/tcc805x/gcc/tcc805x-freertos-debug/obj/ipc_parser.o
 .debug_frame   0x0000000000002984       0xfc /home/junghyun/topst/cr5-bsp/sources/build/tcc805x/gcc/tcc805x-freertos-debug/obj/ipc_api.o
 .debug_frame   0x0000000000002a80       0xcc /home/junghyun/topst/cr5-bsp/sources/build/tcc805x/gcc/tcc805x-freertos-debug/obj/ipc.o
 .debug_frame   0x0000000000002b4c      0x11c /home/junghyun/topst/cr5-bsp/sources/build/tcc805x/gcc/tcc805x-freertos-debug/obj/lin.o
 .debug_frame   0x0000000000002c68       0xf8 /home/junghyun/topst/cr5-bsp/sources/build/tcc805x/gcc/tcc805x-freertos-debug/obj/sdm.o
 .debug_frame   0x0000000000002d60      0x1fc /home/junghyun/topst/cr5-bsp/sources/build/tcc805x/gcc/tcc805x-freertos-debug/obj/hsm_manager.o
 .debug_frame   0x0000000000002f5c      0x128 /home/junghyun/topst/cr5-bsp/sources/build/tcc805x/gcc/tcc805x-freertos-debug/obj/adc.o
 .debug_frame   0x0000000000003084      0x214 /home/junghyun/topst/cr5-bsp/sources/build/tcc805x/gcc/tcc805x-freertos-debug/obj/can.o
 .debug_frame   0x0000000000003298      0x3c8 /home/junghyun/topst/cr5-bsp/sources/build/tcc805x/gcc/tcc805x-freertos-debug/obj/can_drv.o
 .debug_frame   0x0000000000003660      0x1ec /home/junghyun/topst/cr5-bsp/sources/build/tcc805x/gcc/tcc805x-freertos-debug/obj/can_msg.o
 .debug_frame   0x000000000000384c      0x430 /home/junghyun/topst/cr5-bsp/sources/build/tcc805x/gcc/tcc805x-freertos-debug/obj/can_porting.o
 .debug_frame   0x0000000000003c7c      0x380 /home/junghyun/topst/cr5-bsp/sources/build/tcc805x/gcc/tcc805x-freertos-debug/obj/clock_dev.o
 .debug_frame   0x0000000000003ffc       0xe4 /home/junghyun/topst/cr5-bsp/sources/build/tcc805x/gcc/tcc805x-freertos-debug/obj/debug.o
 .debug_frame   0x00000000000040e0       0x84 /home/junghyun/topst/cr5-bsp/sources/build/tcc805x/gcc/tcc805x-freertos-debug/obj/bsp.o
 .debug_frame   0x0000000000004164      0x1e4 /home/junghyun/topst/cr5-bsp/sources/build/tcc805x/gcc/tcc805x-freertos-debug/obj/fmu.o
 .debug_frame   0x0000000000004348      0x1bc /home/junghyun/topst/cr5-bsp/sources/build/tcc805x/gcc/tcc805x-freertos-debug/obj/gdma.o
 .debug_frame   0x0000000000004504      0x1f4 /home/junghyun/topst/cr5-bsp/sources/build/tcc805x/gcc/tcc805x-freertos-debug/obj/gic.o
 .debug_frame   0x00000000000046f8       0xbc /home/junghyun/topst/cr5-bsp/sources/build/tcc805x/gcc/tcc805x-freertos-debug/obj/gpio.o
 .debug_frame   0x00000000000047b4      0x3c4 /home/junghyun/topst/cr5-bsp/sources/build/tcc805x/gcc/tcc805x-freertos-debug/obj/i2c.o
 .debug_frame   0x0000000000004b78      0x2b8 /home/junghyun/topst/cr5-bsp/sources/build/tcc805x/gcc/tcc805x-freertos-debug/obj/ictc.o
 .debug_frame   0x0000000000004e30      0x378 /home/junghyun/topst/cr5-bsp/sources/build/tcc805x/gcc/tcc805x-freertos-debug/obj/mbox_phy.o
 .debug_frame   0x00000000000051a8      0x4a4 /home/junghyun/topst/cr5-bsp/sources/build/tcc805x/gcc/tcc805x-freertos-debug/obj/mbox_dev.o
 .debug_frame   0x000000000000564c      0x178 /home/junghyun/topst/cr5-bsp/sources/build/tcc805x/gcc/tcc805x-freertos-debug/obj/mbox.o
 .debug_frame   0x00000000000057c4       0xd0 /home/junghyun/topst/cr5-bsp/sources/build/tcc805x/gcc/tcc805x-freertos-debug/obj/mpu.o
 .debug_frame   0x0000000000005894      0x3b0 /home/junghyun/topst/cr5-bsp/sources/build/tcc805x/gcc/tcc805x-freertos-debug/obj/pdm.o
 .debug_frame   0x0000000000005c44      0x420 /home/junghyun/topst/cr5-bsp/sources/build/tcc805x/gcc/tcc805x-freertos-debug/obj/pmio_dev.o
 .debug_frame   0x0000000000006064      0x8b4 /home/junghyun/topst/cr5-bsp/sources/build/tcc805x/gcc/tcc805x-freertos-debug/obj/gpsb.o
 .debug_frame   0x0000000000006918      0x11c /home/junghyun/topst/cr5-bsp/sources/build/tcc805x/gcc/tcc805x-freertos-debug/obj/timer.o
 .debug_frame   0x0000000000006a34      0x588 /home/junghyun/topst/cr5-bsp/sources/build/tcc805x/gcc/tcc805x-freertos-debug/obj/uart.o
 .debug_frame   0x0000000000006fbc      0x2b0 /home/junghyun/topst/cr5-bsp/sources/build/tcc805x/gcc/tcc805x-freertos-debug/obj/udma.o
 .debug_frame   0x000000000000726c      0x184 /home/junghyun/topst/cr5-bsp/sources/build/tcc805x/gcc/tcc805x-freertos-debug/obj/wdt.o
 .debug_frame   0x00000000000073f0       0xb4 /home/junghyun/topst/cr5-bsp/sources/build/tcc805x/gcc/tcc805x-freertos-debug/obj/dse.o
 .debug_frame   0x00000000000074a4      0x11c /home/junghyun/topst/cr5-bsp/sources/build/tcc805x/gcc/tcc805x-freertos-debug/obj/midf.o
 .debug_frame   0x00000000000075c0      0x11c /home/junghyun/topst/cr5-bsp/sources/build/tcc805x/gcc/tcc805x-freertos-debug/obj/pmu_reset.o
 .debug_frame   0x00000000000076dc      0x754 /home/junghyun/topst/cr5-bsp/sources/build/tcc805x/gcc/tcc805x-freertos-debug/obj/tasks.o
 .debug_frame   0x0000000000007e30       0xb0 /home/junghyun/topst/cr5-bsp/sources/build/tcc805x/gcc/tcc805x-freertos-debug/obj/list.o
 .debug_frame   0x0000000000007ee0      0x588 /home/junghyun/topst/cr5-bsp/sources/build/tcc805x/gcc/tcc805x-freertos-debug/obj/queue.o
 .debug_frame   0x0000000000008468      0x174 /home/junghyun/topst/cr5-bsp/sources/build/tcc805x/gcc/tcc805x-freertos-debug/obj/event_groups.o
 .debug_frame   0x00000000000085dc      0x330 /home/junghyun/topst/cr5-bsp/sources/build/tcc805x/gcc/tcc805x-freertos-debug/obj/timers.o
 .debug_frame   0x000000000000890c      0x2d0 /home/junghyun/topst/cr5-bsp/sources/build/tcc805x/gcc/tcc805x-freertos-debug/obj/stream_buffer.o
 .debug_frame   0x0000000000008bdc      0x284 /home/junghyun/topst/cr5-bsp/sources/build/tcc805x/gcc/tcc805x-freertos-debug/obj/port.o
 .debug_frame   0x0000000000008e60       0xf8 /home/junghyun/topst/cr5-bsp/sources/build/tcc805x/gcc/tcc805x-freertos-debug/obj/heap_5.o
 .debug_frame   0x0000000000008f58       0x34 /home/junghyun/topst/cr5-bsp/sources/build/tcc805x/gcc/tcc805x-freertos-debug/obj/sal_api.o
 .debug_frame   0x0000000000008f8c      0x3ec /home/junghyun/topst/cr5-bsp/sources/build/tcc805x/gcc/tcc805x-freertos-debug/obj/sal_freertos_impl.o
 .debug_frame   0x0000000000009378       0x4c /home/junghyun/topst/cr5-bsp/sources/build/tcc805x/gcc/tcc805x-freertos-debug/obj/project_ipc.o
 .debug_frame   0x00000000000093c4       0x70 /home/junghyun/topst/cr5-bsp/sources/build/tcc805x/gcc/tcc805x-freertos-debug/obj/project_i2c.o
 .debug_frame   0x0000000000009434       0x48 /home/junghyun/topst/buildtools/gcc-linaro-7.2.1-2017.11-x86_64_arm-eabi/arm-eabi/libc/usr/lib/libc.a(lib_a-atoi.o)
 .debug_frame   0x000000000000947c       0x48 /home/junghyun/topst/buildtools/gcc-linaro-7.2.1-2017.11-x86_64_arm-eabi/arm-eabi/libc/usr/lib/libc.a(lib_a-atol.o)
 .debug_frame   0x00000000000094c4       0x40 /home/junghyun/topst/buildtools/gcc-linaro-7.2.1-2017.11-x86_64_arm-eabi/arm-eabi/libc/usr/lib/libc.a(lib_a-memcmp.o)
 .debug_frame   0x0000000000009504       0x34 /home/junghyun/topst/buildtools/gcc-linaro-7.2.1-2017.11-x86_64_arm-eabi/arm-eabi/libc/usr/lib/libc.a(lib_a-memcpy-stub.o)
 .debug_frame   0x0000000000009538       0x30 /home/junghyun/topst/buildtools/gcc-linaro-7.2.1-2017.11-x86_64_arm-eabi/arm-eabi/libc/usr/lib/libc.a(lib_a-memset.o)
 .debug_frame   0x0000000000009568       0x20 /home/junghyun/topst/buildtools/gcc-linaro-7.2.1-2017.11-x86_64_arm-eabi/arm-eabi/libc/usr/lib/libc.a(lib_a-strlen-stub.o)
 .debug_frame   0x0000000000009588       0x4c /home/junghyun/topst/buildtools/gcc-linaro-7.2.1-2017.11-x86_64_arm-eabi/arm-eabi/libc/usr/lib/libc.a(lib_a-strncmp.o)
 .debug_frame   0x00000000000095d4       0x40 /home/junghyun/topst/buildtools/gcc-linaro-7.2.1-2017.11-x86_64_arm-eabi/arm-eabi/libc/usr/lib/libc.a(lib_a-strncpy.o)
 .debug_frame   0x0000000000009614       0x20 /home/junghyun/topst/buildtools/gcc-linaro-7.2.1-2017.11-x86_64_arm-eabi/arm-eabi/libc/usr/lib/libc.a(lib_a-strnlen.o)
 .debug_frame   0x0000000000009634       0xac /home/junghyun/topst/buildtools/gcc-linaro-7.2.1-2017.11-x86_64_arm-eabi/arm-eabi/libc/usr/lib/libc.a(lib_a-strtol.o)
 .debug_frame   0x00000000000096e0       0xa8 /home/junghyun/topst/buildtools/gcc-linaro-7.2.1-2017.11-x86_64_arm-eabi/arm-eabi/libc/usr/lib/libc.a(lib_a-strtoul.o)
 .debug_frame   0x0000000000009788      0x194 /home/junghyun/topst/buildtools/gcc-linaro-7.2.1-2017.11-x86_64_arm-eabi/arm-eabi/libc/usr/lib/libc.a(lib_a-locale.o)
 .debug_frame   0x000000000000991c      0x170 /home/junghyun/topst/buildtools/gcc-linaro-7.2.1-2017.11-x86_64_arm-eabi/arm-eabi/libc/usr/lib/libc.a(lib_a-mbtowc_r.o)
 .debug_frame   0x0000000000009a8c       0x44 /home/junghyun/topst/buildtools/gcc-linaro-7.2.1-2017.11-x86_64_arm-eabi/arm-eabi/libc/usr/lib/libc.a(lib_a-strcasecmp.o)
 .debug_frame   0x0000000000009ad0       0x2c /home/junghyun/topst/buildtools/gcc-linaro-7.2.1-2017.11-x86_64_arm-eabi/arm-eabi/libc/usr/lib/libc.a(lib_a-strcat.o)
 .debug_frame   0x0000000000009afc       0x34 /home/junghyun/topst/buildtools/gcc-linaro-7.2.1-2017.11-x86_64_arm-eabi/arm-eabi/libc/usr/lib/libc.a(lib_a-strchr.o)
 .debug_frame   0x0000000000009b30       0x40 /home/junghyun/topst/buildtools/gcc-linaro-7.2.1-2017.11-x86_64_arm-eabi/arm-eabi/libc/usr/lib/libc.a(lib_a-strcmp.o)
 .debug_frame   0x0000000000009b70       0x20 /home/junghyun/topst/buildtools/gcc-linaro-7.2.1-2017.11-x86_64_arm-eabi/arm-eabi/libc/usr/lib/libc.a(lib_a-strcpy.o)
 .debug_frame   0x0000000000009b90       0x20 /home/junghyun/topst/buildtools/gcc-linaro-7.2.1-2017.11-x86_64_arm-eabi/arm-eabi/libc/usr/lib/libc.a(lib_a-strlcpy.o)
 .debug_frame   0x0000000000009bb0       0x44 /home/junghyun/topst/buildtools/gcc-linaro-7.2.1-2017.11-x86_64_arm-eabi/arm-eabi/libc/usr/lib/libc.a(lib_a-strncasecmp.o)
 .debug_frame   0x0000000000009bf4       0xd0 /home/junghyun/topst/buildtools/gcc-linaro-7.2.1-2017.11-x86_64_arm-eabi/arm-eabi/libc/usr/lib/libc.a(lib_a-wctomb_r.o)
 .debug_frame   0x0000000000009cc4       0x20 /home/junghyun/topst/buildtools/gcc-linaro-7.2.1-2017.11-x86_64_arm-eabi/arm-eabi/libc/usr/lib/libc.a(lib_a-ctype_.o)
 .debug_frame   0x0000000000009ce4       0x70 /home/junghyun/topst/buildtools/gcc-linaro-7.2.1-2017.11-x86_64_arm-eabi/arm-eabi/libc/usr/lib/libc.a(lib_a-getenv_r.o)
 .debug_frame   0x0000000000009d54       0x30 /home/junghyun/topst/buildtools/gcc-linaro-7.2.1-2017.11-x86_64_arm-eabi/arm-eabi/libc/usr/lib/libc.a(lib_a-envlock.o)
 .debug_frame   0x0000000000009d84       0x20 /home/junghyun/topst/buildtools/gcc-linaro-7.2.1-2017.11-x86_64_arm-eabi/arm-eabi/libc/usr/lib/libgcc.a(_udivsi3.o)
 .debug_frame   0x0000000000009da4       0x2c /home/junghyun/topst/buildtools/gcc-linaro-7.2.1-2017.11-x86_64_arm-eabi/arm-eabi/libc/usr/lib/libgcc.a(_aeabi_uldivmod.o)
 .debug_frame   0x0000000000009dd0       0x48 /home/junghyun/topst/buildtools/gcc-linaro-7.2.1-2017.11-x86_64_arm-eabi/arm-eabi/libc/usr/lib/libgcc.a(_udivmoddi4.o)

.debug_ranges   0x0000000000000000      0x198
 .debug_ranges  0x0000000000000000       0x18 /home/junghyun/topst/cr5-bsp/sources/build/tcc805x/gcc/tcc805x-freertos-debug/obj/lin_test.o
 .debug_ranges  0x0000000000000018       0x18 /home/junghyun/topst/cr5-bsp/sources/build/tcc805x/gcc/tcc805x-freertos-debug/obj/lin.o
 .debug_ranges  0x0000000000000030       0x28 /home/junghyun/topst/cr5-bsp/sources/build/tcc805x/gcc/tcc805x-freertos-debug/obj/sal_freertos_impl.o
 .debug_ranges  0x0000000000000058       0x10 /home/junghyun/topst/buildtools/gcc-linaro-7.2.1-2017.11-x86_64_arm-eabi/arm-eabi/libc/usr/lib/libc.a(lib_a-strlen-stub.o)
 .debug_ranges  0x0000000000000068       0x18 /home/junghyun/topst/buildtools/gcc-linaro-7.2.1-2017.11-x86_64_arm-eabi/arm-eabi/libc/usr/lib/libc.a(lib_a-strtol.o)
 .debug_ranges  0x0000000000000080       0x18 /home/junghyun/topst/buildtools/gcc-linaro-7.2.1-2017.11-x86_64_arm-eabi/arm-eabi/libc/usr/lib/libc.a(lib_a-strtoul.o)
 .debug_ranges  0x0000000000000098       0x38 /home/junghyun/topst/buildtools/gcc-linaro-7.2.1-2017.11-x86_64_arm-eabi/arm-eabi/libc/usr/lib/libc.a(lib_a-locale.o)
 .debug_ranges  0x00000000000000d0       0x58 /home/junghyun/topst/buildtools/gcc-linaro-7.2.1-2017.11-x86_64_arm-eabi/arm-eabi/libc/usr/lib/libc.a(lib_a-mbtowc_r.o)
 .debug_ranges  0x0000000000000128       0x30 /home/junghyun/topst/buildtools/gcc-linaro-7.2.1-2017.11-x86_64_arm-eabi/arm-eabi/libc/usr/lib/libc.a(lib_a-strcasecmp.o)
 .debug_ranges  0x0000000000000158       0x10 /home/junghyun/topst/buildtools/gcc-linaro-7.2.1-2017.11-x86_64_arm-eabi/arm-eabi/libc/usr/lib/libc.a(lib_a-strcpy.o)
 .debug_ranges  0x0000000000000168       0x18 /home/junghyun/topst/buildtools/gcc-linaro-7.2.1-2017.11-x86_64_arm-eabi/arm-eabi/libc/usr/lib/libc.a(lib_a-strncasecmp.o)
 .debug_ranges  0x0000000000000180       0x18 /home/junghyun/topst/buildtools/gcc-linaro-7.2.1-2017.11-x86_64_arm-eabi/arm-eabi/libc/usr/lib/libc.a(lib_a-wctomb_r.o)

Cross Reference Table

Symbol                                            File
ADC_AutoScan                                      /home/junghyun/topst/cr5-bsp/sources/build/tcc805x/gcc/tcc805x-freertos-debug/obj/adc.o
                                                  /home/junghyun/topst/cr5-bsp/sources/build/tcc805x/gcc/tcc805x-freertos-debug/obj/key_adc.o
ADC_DeInit                                        /home/junghyun/topst/cr5-bsp/sources/build/tcc805x/gcc/tcc805x-freertos-debug/obj/adc.o
ADC_Init                                          /home/junghyun/topst/cr5-bsp/sources/build/tcc805x/gcc/tcc805x-freertos-debug/obj/adc.o
                                                  /home/junghyun/topst/cr5-bsp/sources/build/tcc805x/gcc/tcc805x-freertos-debug/obj/bsp.o
ADC_Read                                          /home/junghyun/topst/cr5-bsp/sources/build/tcc805x/gcc/tcc805x-freertos-debug/obj/adc.o
ARM_DSB                                           /home/junghyun/topst/cr5-bsp/sources/build/tcc805x/gcc/tcc805x-freertos-debug/obj/arm_a.o
                                                  /home/junghyun/topst/cr5-bsp/sources/build/tcc805x/gcc/tcc805x-freertos-debug/obj/mpu.o
ARM_ExceptDataAbortHndlr                          /home/junghyun/topst/cr5-bsp/sources/build/tcc805x/gcc/tcc805x-freertos-debug/obj/sal.o
                                                  /home/junghyun/topst/cr5-bsp/sources/build/tcc805x/gcc/tcc805x-freertos-debug/obj/vector.o
ARM_ExceptFiqHndlr                                /home/junghyun/topst/cr5-bsp/sources/build/tcc805x/gcc/tcc805x-freertos-debug/obj/sal.o
                                                  /home/junghyun/topst/cr5-bsp/sources/build/tcc805x/gcc/tcc805x-freertos-debug/obj/vector.o
ARM_ExceptIrqHndlr                                /home/junghyun/topst/cr5-bsp/sources/build/tcc805x/gcc/tcc805x-freertos-debug/obj/sal.o
                                                  /home/junghyun/topst/cr5-bsp/sources/build/tcc805x/gcc/tcc805x-freertos-debug/obj/vector.o
ARM_ExceptPrefetchAbortHndlr                      /home/junghyun/topst/cr5-bsp/sources/build/tcc805x/gcc/tcc805x-freertos-debug/obj/sal.o
                                                  /home/junghyun/topst/cr5-bsp/sources/build/tcc805x/gcc/tcc805x-freertos-debug/obj/vector.o
ARM_ExceptSwiHndlr                                /home/junghyun/topst/cr5-bsp/sources/build/tcc805x/gcc/tcc805x-freertos-debug/obj/sal.o
                                                  /home/junghyun/topst/cr5-bsp/sources/build/tcc805x/gcc/tcc805x-freertos-debug/obj/vector.o
ARM_ExceptUndefInstrHndlr                         /home/junghyun/topst/cr5-bsp/sources/build/tcc805x/gcc/tcc805x-freertos-debug/obj/sal.o
                                                  /home/junghyun/topst/cr5-bsp/sources/build/tcc805x/gcc/tcc805x-freertos-debug/obj/vector.o
ARM_Reserved                                      /home/junghyun/topst/cr5-bsp/sources/build/tcc805x/gcc/tcc805x-freertos-debug/obj/vector.o
                                                  /home/junghyun/topst/cr5-bsp/sources/build/tcc805x/gcc/tcc805x-freertos-debug/obj/bsp.o
ArbitrationPhaseTimingPar                         /home/junghyun/topst/cr5-bsp/sources/build/tcc805x/gcc/tcc805x-freertos-debug/obj/can_par.o
                                                  /home/junghyun/topst/cr5-bsp/sources/build/tcc805x/gcc/tcc805x-freertos-debug/obj/can_drv.o
BCTRL_Init                                        /home/junghyun/topst/cr5-bsp/sources/build/tcc805x/gcc/tcc805x-freertos-debug/obj/bootctrl.o
                                                  /home/junghyun/topst/cr5-bsp/sources/build/tcc805x/gcc/tcc805x-freertos-debug/obj/main.o
BSP_Init                                          /home/junghyun/topst/cr5-bsp/sources/build/tcc805x/gcc/tcc805x-freertos-debug/obj/bsp.o
                                                  /home/junghyun/topst/cr5-bsp/sources/build/tcc805x/gcc/tcc805x-freertos-debug/obj/main.o
BSP_PreInit                                       /home/junghyun/topst/cr5-bsp/sources/build/tcc805x/gcc/tcc805x-freertos-debug/obj/bsp.o
                                                  /home/junghyun/topst/cr5-bsp/sources/build/tcc805x/gcc/tcc805x-freertos-debug/obj/main.o
BSP_SystemHalt                                    /home/junghyun/topst/cr5-bsp/sources/build/tcc805x/gcc/tcc805x-freertos-debug/obj/bsp.o
BSP_UndefAbortExceptionHook                       /home/junghyun/topst/cr5-bsp/sources/build/tcc805x/gcc/tcc805x-freertos-debug/obj/bsp.o
                                                  /home/junghyun/topst/cr5-bsp/sources/build/tcc805x/gcc/tcc805x-freertos-debug/obj/freertos.o
CANCallbackFunctions                              /home/junghyun/topst/cr5-bsp/sources/build/tcc805x/gcc/tcc805x-freertos-debug/obj/can_par.o
                                                  /home/junghyun/topst/cr5-bsp/sources/build/tcc805x/gcc/tcc805x-freertos-debug/obj/can_drv.o
                                                  /home/junghyun/topst/cr5-bsp/sources/build/tcc805x/gcc/tcc805x-freertos-debug/obj/can.o
CAN_CheckNewRxMessage                             /home/junghyun/topst/cr5-bsp/sources/build/tcc805x/gcc/tcc805x-freertos-debug/obj/can.o
                                                  /home/junghyun/topst/cr5-bsp/sources/build/tcc805x/gcc/tcc805x-freertos-debug/obj/can_demo.o
CAN_CheckNewTxEvent                               /home/junghyun/topst/cr5-bsp/sources/build/tcc805x/gcc/tcc805x-freertos-debug/obj/can.o
                                                  /home/junghyun/topst/cr5-bsp/sources/build/tcc805x/gcc/tcc805x-freertos-debug/obj/can_demo.o
CAN_Deinit                                        /home/junghyun/topst/cr5-bsp/sources/build/tcc805x/gcc/tcc805x-freertos-debug/obj/can.o
CAN_DemoCreateApp                                 /home/junghyun/topst/cr5-bsp/sources/build/tcc805x/gcc/tcc805x-freertos-debug/obj/can_demo.o
                                                  /home/junghyun/topst/cr5-bsp/sources/build/tcc805x/gcc/tcc805x-freertos-debug/obj/main.o
CAN_DemoInitialize                                /home/junghyun/topst/cr5-bsp/sources/build/tcc805x/gcc/tcc805x-freertos-debug/obj/can_demo.o
                                                  /home/junghyun/topst/cr5-bsp/sources/build/tcc805x/gcc/tcc805x-freertos-debug/obj/main.o
CAN_DemoTest                                      /home/junghyun/topst/cr5-bsp/sources/build/tcc805x/gcc/tcc805x-freertos-debug/obj/can_demo.o
                                                  /home/junghyun/topst/cr5-bsp/sources/build/tcc805x/gcc/tcc805x-freertos-debug/obj/console.o
CAN_DrvCallbackNotifyRxEvent                      /home/junghyun/topst/cr5-bsp/sources/build/tcc805x/gcc/tcc805x-freertos-debug/obj/can_drv.o
                                                  /home/junghyun/topst/cr5-bsp/sources/build/tcc805x/gcc/tcc805x-freertos-debug/obj/can_msg.o
CAN_DrvDeinitChannel                              /home/junghyun/topst/cr5-bsp/sources/build/tcc805x/gcc/tcc805x-freertos-debug/obj/can_drv.o
                                                  /home/junghyun/topst/cr5-bsp/sources/build/tcc805x/gcc/tcc805x-freertos-debug/obj/can.o
CAN_DrvGetProtocolStatus                          /home/junghyun/topst/cr5-bsp/sources/build/tcc805x/gcc/tcc805x-freertos-debug/obj/can_drv.o
                                                  /home/junghyun/topst/cr5-bsp/sources/build/tcc805x/gcc/tcc805x-freertos-debug/obj/can.o
CAN_DrvInitChannel                                /home/junghyun/topst/cr5-bsp/sources/build/tcc805x/gcc/tcc805x-freertos-debug/obj/can_drv.o
                                                  /home/junghyun/topst/cr5-bsp/sources/build/tcc805x/gcc/tcc805x-freertos-debug/obj/can.o
CAN_DrvSetExternalTestMode                        /home/junghyun/topst/cr5-bsp/sources/build/tcc805x/gcc/tcc805x-freertos-debug/obj/can_drv.o
                                                  /home/junghyun/topst/cr5-bsp/sources/build/tcc805x/gcc/tcc805x-freertos-debug/obj/can.o
CAN_DrvSetInternalTestMode                        /home/junghyun/topst/cr5-bsp/sources/build/tcc805x/gcc/tcc805x-freertos-debug/obj/can_drv.o
                                                  /home/junghyun/topst/cr5-bsp/sources/build/tcc805x/gcc/tcc805x-freertos-debug/obj/can.o
CAN_DrvSetMonitoringMode                          /home/junghyun/topst/cr5-bsp/sources/build/tcc805x/gcc/tcc805x-freertos-debug/obj/can_drv.o
                                                  /home/junghyun/topst/cr5-bsp/sources/build/tcc805x/gcc/tcc805x-freertos-debug/obj/can.o
CAN_DrvSetNormalOperationMode                     /home/junghyun/topst/cr5-bsp/sources/build/tcc805x/gcc/tcc805x-freertos-debug/obj/can_drv.o
                                                  /home/junghyun/topst/cr5-bsp/sources/build/tcc805x/gcc/tcc805x-freertos-debug/obj/can.o
CAN_DrvSetSleepMode                               /home/junghyun/topst/cr5-bsp/sources/build/tcc805x/gcc/tcc805x-freertos-debug/obj/can_drv.o
                                                  /home/junghyun/topst/cr5-bsp/sources/build/tcc805x/gcc/tcc805x-freertos-debug/obj/can.o
CAN_DrvSetWakeUpMode                              /home/junghyun/topst/cr5-bsp/sources/build/tcc805x/gcc/tcc805x-freertos-debug/obj/can_drv.o
                                                  /home/junghyun/topst/cr5-bsp/sources/build/tcc805x/gcc/tcc805x-freertos-debug/obj/can.o
CAN_GetControllerInfo                             /home/junghyun/topst/cr5-bsp/sources/build/tcc805x/gcc/tcc805x-freertos-debug/obj/can.o
                                                  /home/junghyun/topst/cr5-bsp/sources/build/tcc805x/gcc/tcc805x-freertos-debug/obj/can_msg.o
                                                  /home/junghyun/topst/cr5-bsp/sources/build/tcc805x/gcc/tcc805x-freertos-debug/obj/can_drv.o
CAN_GetControllerMode                             /home/junghyun/topst/cr5-bsp/sources/build/tcc805x/gcc/tcc805x-freertos-debug/obj/can.o
CAN_GetNewRxMessage                               /home/junghyun/topst/cr5-bsp/sources/build/tcc805x/gcc/tcc805x-freertos-debug/obj/can.o
                                                  /home/junghyun/topst/cr5-bsp/sources/build/tcc805x/gcc/tcc805x-freertos-debug/obj/can_demo.o
CAN_GetNewTxEvent                                 /home/junghyun/topst/cr5-bsp/sources/build/tcc805x/gcc/tcc805x-freertos-debug/obj/can.o
                                                  /home/junghyun/topst/cr5-bsp/sources/build/tcc805x/gcc/tcc805x-freertos-debug/obj/can_demo.o
CAN_GetProtocolStatus                             /home/junghyun/topst/cr5-bsp/sources/build/tcc805x/gcc/tcc805x-freertos-debug/obj/can.o
                                                  /home/junghyun/topst/cr5-bsp/sources/build/tcc805x/gcc/tcc805x-freertos-debug/obj/can_demo.o
CAN_Init                                          /home/junghyun/topst/cr5-bsp/sources/build/tcc805x/gcc/tcc805x-freertos-debug/obj/can.o
                                                  /home/junghyun/topst/cr5-bsp/sources/build/tcc805x/gcc/tcc805x-freertos-debug/obj/can_drv.o
                                                  /home/junghyun/topst/cr5-bsp/sources/build/tcc805x/gcc/tcc805x-freertos-debug/obj/can_demo.o
CAN_InitMessage                                   /home/junghyun/topst/cr5-bsp/sources/build/tcc805x/gcc/tcc805x-freertos-debug/obj/can.o
                                                  /home/junghyun/topst/cr5-bsp/sources/build/tcc805x/gcc/tcc805x-freertos-debug/obj/can_demo.o
CAN_MsgGetCountOfRxMessage                        /home/junghyun/topst/cr5-bsp/sources/build/tcc805x/gcc/tcc805x-freertos-debug/obj/can_msg.o
                                                  /home/junghyun/topst/cr5-bsp/sources/build/tcc805x/gcc/tcc805x-freertos-debug/obj/can.o
CAN_MsgGetCountOfTxEvent                          /home/junghyun/topst/cr5-bsp/sources/build/tcc805x/gcc/tcc805x-freertos-debug/obj/can_msg.o
                                                  /home/junghyun/topst/cr5-bsp/sources/build/tcc805x/gcc/tcc805x-freertos-debug/obj/can.o
CAN_MsgGetRxMessage                               /home/junghyun/topst/cr5-bsp/sources/build/tcc805x/gcc/tcc805x-freertos-debug/obj/can_msg.o
                                                  /home/junghyun/topst/cr5-bsp/sources/build/tcc805x/gcc/tcc805x-freertos-debug/obj/can.o
CAN_MsgGetTxEventMessage                          /home/junghyun/topst/cr5-bsp/sources/build/tcc805x/gcc/tcc805x-freertos-debug/obj/can_msg.o
                                                  /home/junghyun/topst/cr5-bsp/sources/build/tcc805x/gcc/tcc805x-freertos-debug/obj/can.o
CAN_MsgInit                                       /home/junghyun/topst/cr5-bsp/sources/build/tcc805x/gcc/tcc805x-freertos-debug/obj/can_msg.o
                                                  /home/junghyun/topst/cr5-bsp/sources/build/tcc805x/gcc/tcc805x-freertos-debug/obj/can_drv.o
                                                  /home/junghyun/topst/cr5-bsp/sources/build/tcc805x/gcc/tcc805x-freertos-debug/obj/can.o
CAN_MsgPutRxMessage                               /home/junghyun/topst/cr5-bsp/sources/build/tcc805x/gcc/tcc805x-freertos-debug/obj/can_msg.o
                                                  /home/junghyun/topst/cr5-bsp/sources/build/tcc805x/gcc/tcc805x-freertos-debug/obj/can_drv.o
CAN_MsgRequestTxMessageCancellation               /home/junghyun/topst/cr5-bsp/sources/build/tcc805x/gcc/tcc805x-freertos-debug/obj/can_msg.o
                                                  /home/junghyun/topst/cr5-bsp/sources/build/tcc805x/gcc/tcc805x-freertos-debug/obj/can.o
CAN_MsgSetTxMessage                               /home/junghyun/topst/cr5-bsp/sources/build/tcc805x/gcc/tcc805x-freertos-debug/obj/can_msg.o
                                                  /home/junghyun/topst/cr5-bsp/sources/build/tcc805x/gcc/tcc805x-freertos-debug/obj/can.o
CAN_PortingAllocateNonCacheMemory                 /home/junghyun/topst/cr5-bsp/sources/build/tcc805x/gcc/tcc805x-freertos-debug/obj/can_porting.o
                                                  /home/junghyun/topst/cr5-bsp/sources/build/tcc805x/gcc/tcc805x-freertos-debug/obj/can_drv.o
CAN_PortingDeallocateNonCacheMemory               /home/junghyun/topst/cr5-bsp/sources/build/tcc805x/gcc/tcc805x-freertos-debug/obj/can_porting.o
                                                  /home/junghyun/topst/cr5-bsp/sources/build/tcc805x/gcc/tcc805x-freertos-debug/obj/can_drv.o
CAN_PortingDelay                                  /home/junghyun/topst/cr5-bsp/sources/build/tcc805x/gcc/tcc805x-freertos-debug/obj/can_porting.o
                                                  /home/junghyun/topst/cr5-bsp/sources/build/tcc805x/gcc/tcc805x-freertos-debug/obj/can_drv.o
                                                  /home/junghyun/topst/cr5-bsp/sources/build/tcc805x/gcc/tcc805x-freertos-debug/obj/can_demo.o
CAN_PortingDisableControllerInterrupts            /home/junghyun/topst/cr5-bsp/sources/build/tcc805x/gcc/tcc805x-freertos-debug/obj/can_porting.o
                                                  /home/junghyun/topst/cr5-bsp/sources/build/tcc805x/gcc/tcc805x-freertos-debug/obj/can.o
CAN_PortingEnableControllerInterrupts             /home/junghyun/topst/cr5-bsp/sources/build/tcc805x/gcc/tcc805x-freertos-debug/obj/can_porting.o
                                                  /home/junghyun/topst/cr5-bsp/sources/build/tcc805x/gcc/tcc805x-freertos-debug/obj/can.o
CAN_PortingGetBitRateSwitchEnable                 /home/junghyun/topst/cr5-bsp/sources/build/tcc805x/gcc/tcc805x-freertos-debug/obj/can_porting.o
                                                  /home/junghyun/topst/cr5-bsp/sources/build/tcc805x/gcc/tcc805x-freertos-debug/obj/can_drv.o
CAN_PortingGetConfigBaseAddr                      /home/junghyun/topst/cr5-bsp/sources/build/tcc805x/gcc/tcc805x-freertos-debug/obj/can_porting.o
CAN_PortingGetConfigEXTS0Addr                     /home/junghyun/topst/cr5-bsp/sources/build/tcc805x/gcc/tcc805x-freertos-debug/obj/can_porting.o
                                                  /home/junghyun/topst/cr5-bsp/sources/build/tcc805x/gcc/tcc805x-freertos-debug/obj/can_drv.o
CAN_PortingGetConfigEXTS1Addr                     /home/junghyun/topst/cr5-bsp/sources/build/tcc805x/gcc/tcc805x-freertos-debug/obj/can_porting.o
                                                  /home/junghyun/topst/cr5-bsp/sources/build/tcc805x/gcc/tcc805x-freertos-debug/obj/can_drv.o
CAN_PortingGetConfigWriteLockAddr                 /home/junghyun/topst/cr5-bsp/sources/build/tcc805x/gcc/tcc805x-freertos-debug/obj/can_porting.o
CAN_PortingGetConfigWritePasswordAddr             /home/junghyun/topst/cr5-bsp/sources/build/tcc805x/gcc/tcc805x-freertos-debug/obj/can_porting.o
CAN_PortingGetControllerRegister                  /home/junghyun/topst/cr5-bsp/sources/build/tcc805x/gcc/tcc805x-freertos-debug/obj/can_porting.o
                                                  /home/junghyun/topst/cr5-bsp/sources/build/tcc805x/gcc/tcc805x-freertos-debug/obj/can_drv.o
CAN_PortingGetExtendedIDFilterEnable              /home/junghyun/topst/cr5-bsp/sources/build/tcc805x/gcc/tcc805x-freertos-debug/obj/can_porting.o
                                                  /home/junghyun/topst/cr5-bsp/sources/build/tcc805x/gcc/tcc805x-freertos-debug/obj/can_drv.o
CAN_PortingGetExtendedIDRemoteRejectEnable        /home/junghyun/topst/cr5-bsp/sources/build/tcc805x/gcc/tcc805x-freertos-debug/obj/can_porting.o
                                                  /home/junghyun/topst/cr5-bsp/sources/build/tcc805x/gcc/tcc805x-freertos-debug/obj/can_drv.o
CAN_PortingGetFDEnable                            /home/junghyun/topst/cr5-bsp/sources/build/tcc805x/gcc/tcc805x-freertos-debug/obj/can_porting.o
                                                  /home/junghyun/topst/cr5-bsp/sources/build/tcc805x/gcc/tcc805x-freertos-debug/obj/can_drv.o
CAN_PortingGetMessageRamBaseAddr                  /home/junghyun/topst/cr5-bsp/sources/build/tcc805x/gcc/tcc805x-freertos-debug/obj/can_porting.o
                                                  /home/junghyun/topst/cr5-bsp/sources/build/tcc805x/gcc/tcc805x-freertos-debug/obj/can_drv.o
CAN_PortingGetSizeofExtendedIDFilterList          /home/junghyun/topst/cr5-bsp/sources/build/tcc805x/gcc/tcc805x-freertos-debug/obj/can_porting.o
                                                  /home/junghyun/topst/cr5-bsp/sources/build/tcc805x/gcc/tcc805x-freertos-debug/obj/can_drv.o
CAN_PortingGetSizeofRxBuffer                      /home/junghyun/topst/cr5-bsp/sources/build/tcc805x/gcc/tcc805x-freertos-debug/obj/can_porting.o
                                                  /home/junghyun/topst/cr5-bsp/sources/build/tcc805x/gcc/tcc805x-freertos-debug/obj/can_drv.o
CAN_PortingGetSizeofRxFIFO0                       /home/junghyun/topst/cr5-bsp/sources/build/tcc805x/gcc/tcc805x-freertos-debug/obj/can_porting.o
                                                  /home/junghyun/topst/cr5-bsp/sources/build/tcc805x/gcc/tcc805x-freertos-debug/obj/can_drv.o
CAN_PortingGetSizeofRxFIFO1                       /home/junghyun/topst/cr5-bsp/sources/build/tcc805x/gcc/tcc805x-freertos-debug/obj/can_porting.o
                                                  /home/junghyun/topst/cr5-bsp/sources/build/tcc805x/gcc/tcc805x-freertos-debug/obj/can_drv.o
CAN_PortingGetSizeofStandardIDFilterList          /home/junghyun/topst/cr5-bsp/sources/build/tcc805x/gcc/tcc805x-freertos-debug/obj/can_porting.o
                                                  /home/junghyun/topst/cr5-bsp/sources/build/tcc805x/gcc/tcc805x-freertos-debug/obj/can_drv.o
CAN_PortingGetSizeofTxBuffer                      /home/junghyun/topst/cr5-bsp/sources/build/tcc805x/gcc/tcc805x-freertos-debug/obj/can_porting.o
                                                  /home/junghyun/topst/cr5-bsp/sources/build/tcc805x/gcc/tcc805x-freertos-debug/obj/can_drv.o
CAN_PortingGetSizeofTxEventBuffer                 /home/junghyun/topst/cr5-bsp/sources/build/tcc805x/gcc/tcc805x-freertos-debug/obj/can_porting.o
                                                  /home/junghyun/topst/cr5-bsp/sources/build/tcc805x/gcc/tcc805x-freertos-debug/obj/can_drv.o
CAN_PortingGetStandardIDFilterEnable              /home/junghyun/topst/cr5-bsp/sources/build/tcc805x/gcc/tcc805x-freertos-debug/obj/can_porting.o
                                                  /home/junghyun/topst/cr5-bsp/sources/build/tcc805x/gcc/tcc805x-freertos-debug/obj/can_drv.o
CAN_PortingGetStandardIDRemoteRejectEnable        /home/junghyun/topst/cr5-bsp/sources/build/tcc805x/gcc/tcc805x-freertos-debug/obj/can_porting.o
                                                  /home/junghyun/topst/cr5-bsp/sources/build/tcc805x/gcc/tcc805x-freertos-debug/obj/can_drv.o
CAN_PortingGetTimeOutEnable                       /home/junghyun/topst/cr5-bsp/sources/build/tcc805x/gcc/tcc805x-freertos-debug/obj/can_porting.o
                                                  /home/junghyun/topst/cr5-bsp/sources/build/tcc805x/gcc/tcc805x-freertos-debug/obj/can_drv.o
CAN_PortingGetTimeStampEnable                     /home/junghyun/topst/cr5-bsp/sources/build/tcc805x/gcc/tcc805x-freertos-debug/obj/can_porting.o
                                                  /home/junghyun/topst/cr5-bsp/sources/build/tcc805x/gcc/tcc805x-freertos-debug/obj/can_drv.o
CAN_PortingGetTxEventFIFOEnable                   /home/junghyun/topst/cr5-bsp/sources/build/tcc805x/gcc/tcc805x-freertos-debug/obj/can_porting.o
                                                  /home/junghyun/topst/cr5-bsp/sources/build/tcc805x/gcc/tcc805x-freertos-debug/obj/can_drv.o
CAN_PortingGetWatchDogEnable                      /home/junghyun/topst/cr5-bsp/sources/build/tcc805x/gcc/tcc805x-freertos-debug/obj/can_porting.o
                                                  /home/junghyun/topst/cr5-bsp/sources/build/tcc805x/gcc/tcc805x-freertos-debug/obj/can_drv.o
CAN_PortingInitHW                                 /home/junghyun/topst/cr5-bsp/sources/build/tcc805x/gcc/tcc805x-freertos-debug/obj/can_porting.o
                                                  /home/junghyun/topst/cr5-bsp/sources/build/tcc805x/gcc/tcc805x-freertos-debug/obj/can_drv.o
CAN_PortingResetDriver                            /home/junghyun/topst/cr5-bsp/sources/build/tcc805x/gcc/tcc805x-freertos-debug/obj/can_porting.o
                                                  /home/junghyun/topst/cr5-bsp/sources/build/tcc805x/gcc/tcc805x-freertos-debug/obj/can_drv.o
                                                  /home/junghyun/topst/cr5-bsp/sources/build/tcc805x/gcc/tcc805x-freertos-debug/obj/can.o
CAN_PortingSetControllerClock                     /home/junghyun/topst/cr5-bsp/sources/build/tcc805x/gcc/tcc805x-freertos-debug/obj/can_porting.o
                                                  /home/junghyun/topst/cr5-bsp/sources/build/tcc805x/gcc/tcc805x-freertos-debug/obj/can_drv.o
CAN_PortingSetInterruptHandler                    /home/junghyun/topst/cr5-bsp/sources/build/tcc805x/gcc/tcc805x-freertos-debug/obj/can_porting.o
                                                  /home/junghyun/topst/cr5-bsp/sources/build/tcc805x/gcc/tcc805x-freertos-debug/obj/can_drv.o
CAN_RegisterCallbackFunctionError                 /home/junghyun/topst/cr5-bsp/sources/build/tcc805x/gcc/tcc805x-freertos-debug/obj/can.o
                                                  /home/junghyun/topst/cr5-bsp/sources/build/tcc805x/gcc/tcc805x-freertos-debug/obj/can_demo.o
CAN_RegisterCallbackFunctionRx                    /home/junghyun/topst/cr5-bsp/sources/build/tcc805x/gcc/tcc805x-freertos-debug/obj/can.o
                                                  /home/junghyun/topst/cr5-bsp/sources/build/tcc805x/gcc/tcc805x-freertos-debug/obj/can_demo.o
CAN_RegisterCallbackFunctionTx                    /home/junghyun/topst/cr5-bsp/sources/build/tcc805x/gcc/tcc805x-freertos-debug/obj/can.o
                                                  /home/junghyun/topst/cr5-bsp/sources/build/tcc805x/gcc/tcc805x-freertos-debug/obj/can_demo.o
CAN_RequestTxMessageCancellation                  /home/junghyun/topst/cr5-bsp/sources/build/tcc805x/gcc/tcc805x-freertos-debug/obj/can.o
CAN_SendMessage                                   /home/junghyun/topst/cr5-bsp/sources/build/tcc805x/gcc/tcc805x-freertos-debug/obj/can.o
                                                  /home/junghyun/topst/cr5-bsp/sources/build/tcc805x/gcc/tcc805x-freertos-debug/obj/can_demo.o
CAN_SetControllerMode                             /home/junghyun/topst/cr5-bsp/sources/build/tcc805x/gcc/tcc805x-freertos-debug/obj/can.o
CLOCK_DisablePeri                                 /home/junghyun/topst/cr5-bsp/sources/build/tcc805x/gcc/tcc805x-freertos-debug/obj/clock_dev.o
                                                  /home/junghyun/topst/cr5-bsp/sources/build/tcc805x/gcc/tcc805x-freertos-debug/obj/pdm.o
                                                  /home/junghyun/topst/cr5-bsp/sources/build/tcc805x/gcc/tcc805x-freertos-debug/obj/ictc.o
                                                  /home/junghyun/topst/cr5-bsp/sources/build/tcc805x/gcc/tcc805x-freertos-debug/obj/i2c.o
                                                  /home/junghyun/topst/cr5-bsp/sources/build/tcc805x/gcc/tcc805x-freertos-debug/obj/adc.o
CLOCK_EnableIobus                                 /home/junghyun/topst/cr5-bsp/sources/build/tcc805x/gcc/tcc805x-freertos-debug/obj/clock_dev.o
                                                  /home/junghyun/topst/cr5-bsp/sources/build/tcc805x/gcc/tcc805x-freertos-debug/obj/udma.o
                                                  /home/junghyun/topst/cr5-bsp/sources/build/tcc805x/gcc/tcc805x-freertos-debug/obj/gdma.o
CLOCK_EnablePeri                                  /home/junghyun/topst/cr5-bsp/sources/build/tcc805x/gcc/tcc805x-freertos-debug/obj/clock_dev.o
                                                  /home/junghyun/topst/cr5-bsp/sources/build/tcc805x/gcc/tcc805x-freertos-debug/obj/uart.o
                                                  /home/junghyun/topst/cr5-bsp/sources/build/tcc805x/gcc/tcc805x-freertos-debug/obj/timer.o
                                                  /home/junghyun/topst/cr5-bsp/sources/build/tcc805x/gcc/tcc805x-freertos-debug/obj/gpsb.o
                                                  /home/junghyun/topst/cr5-bsp/sources/build/tcc805x/gcc/tcc805x-freertos-debug/obj/pdm.o
                                                  /home/junghyun/topst/cr5-bsp/sources/build/tcc805x/gcc/tcc805x-freertos-debug/obj/ictc.o
                                                  /home/junghyun/topst/cr5-bsp/sources/build/tcc805x/gcc/tcc805x-freertos-debug/obj/i2c.o
                                                  /home/junghyun/topst/cr5-bsp/sources/build/tcc805x/gcc/tcc805x-freertos-debug/obj/can_porting.o
                                                  /home/junghyun/topst/cr5-bsp/sources/build/tcc805x/gcc/tcc805x-freertos-debug/obj/adc.o
CLOCK_GetClkCtrlRate                              /home/junghyun/topst/cr5-bsp/sources/build/tcc805x/gcc/tcc805x-freertos-debug/obj/clock_dev.o
CLOCK_GetPeriRate                                 /home/junghyun/topst/cr5-bsp/sources/build/tcc805x/gcc/tcc805x-freertos-debug/obj/clock_dev.o
                                                  /home/junghyun/topst/cr5-bsp/sources/build/tcc805x/gcc/tcc805x-freertos-debug/obj/uart.o
                                                  /home/junghyun/topst/cr5-bsp/sources/build/tcc805x/gcc/tcc805x-freertos-debug/obj/timer.o
                                                  /home/junghyun/topst/cr5-bsp/sources/build/tcc805x/gcc/tcc805x-freertos-debug/obj/pdm.o
                                                  /home/junghyun/topst/cr5-bsp/sources/build/tcc805x/gcc/tcc805x-freertos-debug/obj/ictc.o
                                                  /home/junghyun/topst/cr5-bsp/sources/build/tcc805x/gcc/tcc805x-freertos-debug/obj/i2c.o
CLOCK_GetPllRate                                  /home/junghyun/topst/cr5-bsp/sources/build/tcc805x/gcc/tcc805x-freertos-debug/obj/clock_dev.o
CLOCK_Init                                        /home/junghyun/topst/cr5-bsp/sources/build/tcc805x/gcc/tcc805x-freertos-debug/obj/clock_dev.o
                                                  /home/junghyun/topst/cr5-bsp/sources/build/tcc805x/gcc/tcc805x-freertos-debug/obj/bsp.o
CLOCK_IsIobusPwdn                                 /home/junghyun/topst/cr5-bsp/sources/build/tcc805x/gcc/tcc805x-freertos-debug/obj/clock_dev.o
CLOCK_IsPeriEnabled                               /home/junghyun/topst/cr5-bsp/sources/build/tcc805x/gcc/tcc805x-freertos-debug/obj/clock_dev.o
CLOCK_SetClkCtrlRate                              /home/junghyun/topst/cr5-bsp/sources/build/tcc805x/gcc/tcc805x-freertos-debug/obj/clock_dev.o
CLOCK_SetIobusPwdn                                /home/junghyun/topst/cr5-bsp/sources/build/tcc805x/gcc/tcc805x-freertos-debug/obj/clock_dev.o
                                                  /home/junghyun/topst/cr5-bsp/sources/build/tcc805x/gcc/tcc805x-freertos-debug/obj/uart.o
                                                  /home/junghyun/topst/cr5-bsp/sources/build/tcc805x/gcc/tcc805x-freertos-debug/obj/gpsb.o
                                                  /home/junghyun/topst/cr5-bsp/sources/build/tcc805x/gcc/tcc805x-freertos-debug/obj/i2c.o
CLOCK_SetPeriRate                                 /home/junghyun/topst/cr5-bsp/sources/build/tcc805x/gcc/tcc805x-freertos-debug/obj/clock_dev.o
                                                  /home/junghyun/topst/cr5-bsp/sources/build/tcc805x/gcc/tcc805x-freertos-debug/obj/uart.o
                                                  /home/junghyun/topst/cr5-bsp/sources/build/tcc805x/gcc/tcc805x-freertos-debug/obj/timer.o
                                                  /home/junghyun/topst/cr5-bsp/sources/build/tcc805x/gcc/tcc805x-freertos-debug/obj/gpsb.o
                                                  /home/junghyun/topst/cr5-bsp/sources/build/tcc805x/gcc/tcc805x-freertos-debug/obj/pdm.o
                                                  /home/junghyun/topst/cr5-bsp/sources/build/tcc805x/gcc/tcc805x-freertos-debug/obj/ictc.o
                                                  /home/junghyun/topst/cr5-bsp/sources/build/tcc805x/gcc/tcc805x-freertos-debug/obj/i2c.o
                                                  /home/junghyun/topst/cr5-bsp/sources/build/tcc805x/gcc/tcc805x-freertos-debug/obj/can_porting.o
                                                  /home/junghyun/topst/cr5-bsp/sources/build/tcc805x/gcc/tcc805x-freertos-debug/obj/adc.o
CLOCK_SetPllDiv                                   /home/junghyun/topst/cr5-bsp/sources/build/tcc805x/gcc/tcc805x-freertos-debug/obj/clock_dev.o
CLOCK_SetPllRate                                  /home/junghyun/topst/cr5-bsp/sources/build/tcc805x/gcc/tcc805x-freertos-debug/obj/clock_dev.o
CLOCK_SetSwReset                                  /home/junghyun/topst/cr5-bsp/sources/build/tcc805x/gcc/tcc805x-freertos-debug/obj/clock_dev.o
                                                  /home/junghyun/topst/cr5-bsp/sources/build/tcc805x/gcc/tcc805x-freertos-debug/obj/udma.o
                                                  /home/junghyun/topst/cr5-bsp/sources/build/tcc805x/gcc/tcc805x-freertos-debug/obj/uart.o
                                                  /home/junghyun/topst/cr5-bsp/sources/build/tcc805x/gcc/tcc805x-freertos-debug/obj/gpsb.o
                                                  /home/junghyun/topst/cr5-bsp/sources/build/tcc805x/gcc/tcc805x-freertos-debug/obj/i2c.o
CPU_SR_Restore                                    /home/junghyun/topst/cr5-bsp/sources/build/tcc805x/gcc/tcc805x-freertos-debug/obj/freertos.o
                                                  /home/junghyun/topst/cr5-bsp/sources/build/tcc805x/gcc/tcc805x-freertos-debug/obj/sal_freertos_impl.o
CPU_SR_Save                                       /home/junghyun/topst/cr5-bsp/sources/build/tcc805x/gcc/tcc805x-freertos-debug/obj/freertos.o
                                                  /home/junghyun/topst/cr5-bsp/sources/build/tcc805x/gcc/tcc805x-freertos-debug/obj/sal_freertos_impl.o
CPU_WaitForEvent                                  /home/junghyun/topst/cr5-bsp/sources/build/tcc805x/gcc/tcc805x-freertos-debug/obj/freertos.o
                                                  /home/junghyun/topst/cr5-bsp/sources/build/tcc805x/gcc/tcc805x-freertos-debug/obj/sal_freertos_impl.o
CreateConsoleTask                                 /home/junghyun/topst/cr5-bsp/sources/build/tcc805x/gcc/tcc805x-freertos-debug/obj/console.o
                                                  /home/junghyun/topst/cr5-bsp/sources/build/tcc805x/gcc/tcc805x-freertos-debug/obj/main.o
CreateI2CTask                                     /home/junghyun/topst/cr5-bsp/sources/build/tcc805x/gcc/tcc805x-freertos-debug/obj/project_i2c.o
DBG_Printfi                                       /home/junghyun/topst/cr5-bsp/sources/build/tcc805x/gcc/tcc805x-freertos-debug/obj/debug.o
DBG_Putc                                          /home/junghyun/topst/cr5-bsp/sources/build/tcc805x/gcc/tcc805x-freertos-debug/obj/debug.o
DBG_SerialPrintf                                  /home/junghyun/topst/cr5-bsp/sources/build/tcc805x/gcc/tcc805x-freertos-debug/obj/debug.o
                                                  /home/junghyun/topst/cr5-bsp/sources/build/tcc805x/gcc/tcc805x-freertos-debug/obj/project_i2c.o
                                                  /home/junghyun/topst/cr5-bsp/sources/build/tcc805x/gcc/tcc805x-freertos-debug/obj/sal_freertos_impl.o
                                                  /home/junghyun/topst/cr5-bsp/sources/build/tcc805x/gcc/tcc805x-freertos-debug/obj/pmu_reset.o
                                                  /home/junghyun/topst/cr5-bsp/sources/build/tcc805x/gcc/tcc805x-freertos-debug/obj/dse.o
                                                  /home/junghyun/topst/cr5-bsp/sources/build/tcc805x/gcc/tcc805x-freertos-debug/obj/wdt.o
                                                  /home/junghyun/topst/cr5-bsp/sources/build/tcc805x/gcc/tcc805x-freertos-debug/obj/uart.o
                                                  /home/junghyun/topst/cr5-bsp/sources/build/tcc805x/gcc/tcc805x-freertos-debug/obj/timer.o
                                                  /home/junghyun/topst/cr5-bsp/sources/build/tcc805x/gcc/tcc805x-freertos-debug/obj/gpsb.o
                                                  /home/junghyun/topst/cr5-bsp/sources/build/tcc805x/gcc/tcc805x-freertos-debug/obj/pmio_dev.o
                                                  /home/junghyun/topst/cr5-bsp/sources/build/tcc805x/gcc/tcc805x-freertos-debug/obj/pdm.o
                                                  /home/junghyun/topst/cr5-bsp/sources/build/tcc805x/gcc/tcc805x-freertos-debug/obj/mbox.o
                                                  /home/junghyun/topst/cr5-bsp/sources/build/tcc805x/gcc/tcc805x-freertos-debug/obj/mbox_dev.o
                                                  /home/junghyun/topst/cr5-bsp/sources/build/tcc805x/gcc/tcc805x-freertos-debug/obj/ictc.o
                                                  /home/junghyun/topst/cr5-bsp/sources/build/tcc805x/gcc/tcc805x-freertos-debug/obj/i2c.o
                                                  /home/junghyun/topst/cr5-bsp/sources/build/tcc805x/gcc/tcc805x-freertos-debug/obj/gpio.o
                                                  /home/junghyun/topst/cr5-bsp/sources/build/tcc805x/gcc/tcc805x-freertos-debug/obj/gdma.o
                                                  /home/junghyun/topst/cr5-bsp/sources/build/tcc805x/gcc/tcc805x-freertos-debug/obj/fmu.o
                                                  /home/junghyun/topst/cr5-bsp/sources/build/tcc805x/gcc/tcc805x-freertos-debug/obj/bsp.o
                                                  /home/junghyun/topst/cr5-bsp/sources/build/tcc805x/gcc/tcc805x-freertos-debug/obj/can_drv.o
                                                  /home/junghyun/topst/cr5-bsp/sources/build/tcc805x/gcc/tcc805x-freertos-debug/obj/can.o
                                                  /home/junghyun/topst/cr5-bsp/sources/build/tcc805x/gcc/tcc805x-freertos-debug/obj/adc.o
                                                  /home/junghyun/topst/cr5-bsp/sources/build/tcc805x/gcc/tcc805x-freertos-debug/obj/hsm_manager.o
                                                  /home/junghyun/topst/cr5-bsp/sources/build/tcc805x/gcc/tcc805x-freertos-debug/obj/sdm.o
                                                  /home/junghyun/topst/cr5-bsp/sources/build/tcc805x/gcc/tcc805x-freertos-debug/obj/lin.o
                                                  /home/junghyun/topst/cr5-bsp/sources/build/tcc805x/gcc/tcc805x-freertos-debug/obj/ipc_api.o
                                                  /home/junghyun/topst/cr5-bsp/sources/build/tcc805x/gcc/tcc805x-freertos-debug/obj/ipc_ctl.o
                                                  /home/junghyun/topst/cr5-bsp/sources/build/tcc805x/gcc/tcc805x-freertos-debug/obj/ipc_buffer.o
                                                  /home/junghyun/topst/cr5-bsp/sources/build/tcc805x/gcc/tcc805x-freertos-debug/obj/mptool.o
                                                  /home/junghyun/topst/cr5-bsp/sources/build/tcc805x/gcc/tcc805x-freertos-debug/obj/wdt_test.o
                                                  /home/junghyun/topst/cr5-bsp/sources/build/tcc805x/gcc/tcc805x-freertos-debug/obj/timer_test.o
                                                  /home/junghyun/topst/cr5-bsp/sources/build/tcc805x/gcc/tcc805x-freertos-debug/obj/pmio_test.o
                                                  /home/junghyun/topst/cr5-bsp/sources/build/tcc805x/gcc/tcc805x-freertos-debug/obj/pdm_test.o
                                                  /home/junghyun/topst/cr5-bsp/sources/build/tcc805x/gcc/tcc805x-freertos-debug/obj/lin_test.o
                                                  /home/junghyun/topst/cr5-bsp/sources/build/tcc805x/gcc/tcc805x-freertos-debug/obj/ictc_test.o
                                                  /home/junghyun/topst/cr5-bsp/sources/build/tcc805x/gcc/tcc805x-freertos-debug/obj/i2c_test.o
                                                  /home/junghyun/topst/cr5-bsp/sources/build/tcc805x/gcc/tcc805x-freertos-debug/obj/hsm_test.o
                                                  /home/junghyun/topst/cr5-bsp/sources/build/tcc805x/gcc/tcc805x-freertos-debug/obj/gpsb_test.o
                                                  /home/junghyun/topst/cr5-bsp/sources/build/tcc805x/gcc/tcc805x-freertos-debug/obj/gpio_test.o
                                                  /home/junghyun/topst/cr5-bsp/sources/build/tcc805x/gcc/tcc805x-freertos-debug/obj/gic_test.o
                                                  /home/junghyun/topst/cr5-bsp/sources/build/tcc805x/gcc/tcc805x-freertos-debug/obj/gdma_test.o
                                                  /home/junghyun/topst/cr5-bsp/sources/build/tcc805x/gcc/tcc805x-freertos-debug/obj/fmu_test.o
                                                  /home/junghyun/topst/cr5-bsp/sources/build/tcc805x/gcc/tcc805x-freertos-debug/obj/dse_test.o
                                                  /home/junghyun/topst/cr5-bsp/sources/build/tcc805x/gcc/tcc805x-freertos-debug/obj/reset_demo.o
                                                  /home/junghyun/topst/cr5-bsp/sources/build/tcc805x/gcc/tcc805x-freertos-debug/obj/bootctrl.o
                                                  /home/junghyun/topst/cr5-bsp/sources/build/tcc805x/gcc/tcc805x-freertos-debug/obj/key.o
                                                  /home/junghyun/topst/cr5-bsp/sources/build/tcc805x/gcc/tcc805x-freertos-debug/obj/key_i2c.o
                                                  /home/junghyun/topst/cr5-bsp/sources/build/tcc805x/gcc/tcc805x-freertos-debug/obj/fwug.o
                                                  /home/junghyun/topst/cr5-bsp/sources/build/tcc805x/gcc/tcc805x-freertos-debug/obj/console.o
                                                  /home/junghyun/topst/cr5-bsp/sources/build/tcc805x/gcc/tcc805x-freertos-debug/obj/can_demo.o
                                                  /home/junghyun/topst/cr5-bsp/sources/build/tcc805x/gcc/tcc805x-freertos-debug/obj/main.o
DSE_Deinit                                        /home/junghyun/topst/cr5-bsp/sources/build/tcc805x/gcc/tcc805x-freertos-debug/obj/dse.o
                                                  /home/junghyun/topst/cr5-bsp/sources/build/tcc805x/gcc/tcc805x-freertos-debug/obj/dse_test.o
DSE_GetGrpSts                                     /home/junghyun/topst/cr5-bsp/sources/build/tcc805x/gcc/tcc805x-freertos-debug/obj/dse.o
                                                  /home/junghyun/topst/cr5-bsp/sources/build/tcc805x/gcc/tcc805x-freertos-debug/obj/dse_test.o
DSE_Init                                          /home/junghyun/topst/cr5-bsp/sources/build/tcc805x/gcc/tcc805x-freertos-debug/obj/dse.o
                                                  /home/junghyun/topst/cr5-bsp/sources/build/tcc805x/gcc/tcc805x-freertos-debug/obj/dse_test.o
DSE_Test_R5AccessFault                            /home/junghyun/topst/cr5-bsp/sources/build/tcc805x/gcc/tcc805x-freertos-debug/obj/dse_test.o
                                                  /home/junghyun/topst/cr5-bsp/sources/build/tcc805x/gcc/tcc805x-freertos-debug/obj/console.o
DSE_Test_SoftFaultCheck                           /home/junghyun/topst/cr5-bsp/sources/build/tcc805x/gcc/tcc805x-freertos-debug/obj/dse_test.o
                                                  /home/junghyun/topst/cr5-bsp/sources/build/tcc805x/gcc/tcc805x-freertos-debug/obj/console.o
DSE_WriteLock                                     /home/junghyun/topst/cr5-bsp/sources/build/tcc805x/gcc/tcc805x-freertos-debug/obj/dse.o
                                                  /home/junghyun/topst/cr5-bsp/sources/build/tcc805x/gcc/tcc805x-freertos-debug/obj/dse_test.o
DataPhaseTimingPar                                /home/junghyun/topst/cr5-bsp/sources/build/tcc805x/gcc/tcc805x-freertos-debug/obj/can_par.o
                                                  /home/junghyun/topst/cr5-bsp/sources/build/tcc805x/gcc/tcc805x-freertos-debug/obj/can_drv.o
ExtendedIDFilterPar                               /home/junghyun/topst/cr5-bsp/sources/build/tcc805x/gcc/tcc805x-freertos-debug/obj/can_par.o
                                                  /home/junghyun/topst/cr5-bsp/sources/build/tcc805x/gcc/tcc805x-freertos-debug/obj/can_drv.o
FMU_Deinit                                        /home/junghyun/topst/cr5-bsp/sources/build/tcc805x/gcc/tcc805x-freertos-debug/obj/fmu.o
                                                  /home/junghyun/topst/cr5-bsp/sources/build/tcc805x/gcc/tcc805x-freertos-debug/obj/gpsb_test.o
FMU_Init                                          /home/junghyun/topst/cr5-bsp/sources/build/tcc805x/gcc/tcc805x-freertos-debug/obj/fmu.o
                                                  /home/junghyun/topst/cr5-bsp/sources/build/tcc805x/gcc/tcc805x-freertos-debug/obj/bsp.o
FMU_IsrClr                                        /home/junghyun/topst/cr5-bsp/sources/build/tcc805x/gcc/tcc805x-freertos-debug/obj/fmu.o
                                                  /home/junghyun/topst/cr5-bsp/sources/build/tcc805x/gcc/tcc805x-freertos-debug/obj/midf.o
                                                  /home/junghyun/topst/cr5-bsp/sources/build/tcc805x/gcc/tcc805x-freertos-debug/obj/wdt.o
                                                  /home/junghyun/topst/cr5-bsp/sources/build/tcc805x/gcc/tcc805x-freertos-debug/obj/pdm.o
                                                  /home/junghyun/topst/cr5-bsp/sources/build/tcc805x/gcc/tcc805x-freertos-debug/obj/gpsb_test.o
                                                  /home/junghyun/topst/cr5-bsp/sources/build/tcc805x/gcc/tcc805x-freertos-debug/obj/fmu_test.o
                                                  /home/junghyun/topst/cr5-bsp/sources/build/tcc805x/gcc/tcc805x-freertos-debug/obj/dse_test.o
FMU_IsrHandler                                    /home/junghyun/topst/cr5-bsp/sources/build/tcc805x/gcc/tcc805x-freertos-debug/obj/fmu.o
                                                  /home/junghyun/topst/cr5-bsp/sources/build/tcc805x/gcc/tcc805x-freertos-debug/obj/midf.o
                                                  /home/junghyun/topst/cr5-bsp/sources/build/tcc805x/gcc/tcc805x-freertos-debug/obj/wdt.o
                                                  /home/junghyun/topst/cr5-bsp/sources/build/tcc805x/gcc/tcc805x-freertos-debug/obj/pdm.o
                                                  /home/junghyun/topst/cr5-bsp/sources/build/tcc805x/gcc/tcc805x-freertos-debug/obj/gpsb_test.o
                                                  /home/junghyun/topst/cr5-bsp/sources/build/tcc805x/gcc/tcc805x-freertos-debug/obj/fmu_test.o
                                                  /home/junghyun/topst/cr5-bsp/sources/build/tcc805x/gcc/tcc805x-freertos-debug/obj/dse_test.o
FMU_Set                                           /home/junghyun/topst/cr5-bsp/sources/build/tcc805x/gcc/tcc805x-freertos-debug/obj/fmu.o
                                                  /home/junghyun/topst/cr5-bsp/sources/build/tcc805x/gcc/tcc805x-freertos-debug/obj/midf.o
                                                  /home/junghyun/topst/cr5-bsp/sources/build/tcc805x/gcc/tcc805x-freertos-debug/obj/wdt.o
                                                  /home/junghyun/topst/cr5-bsp/sources/build/tcc805x/gcc/tcc805x-freertos-debug/obj/pdm.o
                                                  /home/junghyun/topst/cr5-bsp/sources/build/tcc805x/gcc/tcc805x-freertos-debug/obj/gpsb_test.o
                                                  /home/junghyun/topst/cr5-bsp/sources/build/tcc805x/gcc/tcc805x-freertos-debug/obj/fmu_test.o
                                                  /home/junghyun/topst/cr5-bsp/sources/build/tcc805x/gcc/tcc805x-freertos-debug/obj/dse_test.o
FMU_StartFmuTest                                  /home/junghyun/topst/cr5-bsp/sources/build/tcc805x/gcc/tcc805x-freertos-debug/obj/fmu_test.o
                                                  /home/junghyun/topst/cr5-bsp/sources/build/tcc805x/gcc/tcc805x-freertos-debug/obj/console.o
FWUG_CreateApp                                    /home/junghyun/topst/cr5-bsp/sources/build/tcc805x/gcc/tcc805x-freertos-debug/obj/fwug.o
                                                  /home/junghyun/topst/cr5-bsp/sources/build/tcc805x/gcc/tcc805x-freertos-debug/obj/main.o
FWUG_Start                                        /home/junghyun/topst/cr5-bsp/sources/build/tcc805x/gcc/tcc805x-freertos-debug/obj/fwug.o
                                                  /home/junghyun/topst/cr5-bsp/sources/build/tcc805x/gcc/tcc805x-freertos-debug/obj/console.o
FreeRTOS_ARM_DRegCntGet                           /home/junghyun/topst/cr5-bsp/sources/build/tcc805x/gcc/tcc805x-freertos-debug/obj/freertos.o
FreeRTOS_ARM_ExceptDataAbortHndlr                 /home/junghyun/topst/cr5-bsp/sources/build/tcc805x/gcc/tcc805x-freertos-debug/obj/freertos.o
                                                  /home/junghyun/topst/cr5-bsp/sources/build/tcc805x/gcc/tcc805x-freertos-debug/obj/sal.o
FreeRTOS_ARM_ExceptFiqHndlr                       /home/junghyun/topst/cr5-bsp/sources/build/tcc805x/gcc/tcc805x-freertos-debug/obj/freertos.o
                                                  /home/junghyun/topst/cr5-bsp/sources/build/tcc805x/gcc/tcc805x-freertos-debug/obj/sal.o
FreeRTOS_ARM_ExceptIrqHndlr                       /home/junghyun/topst/cr5-bsp/sources/build/tcc805x/gcc/tcc805x-freertos-debug/obj/freertos.o
                                                  /home/junghyun/topst/cr5-bsp/sources/build/tcc805x/gcc/tcc805x-freertos-debug/obj/sal.o
FreeRTOS_ARM_ExceptPrefetchAbortHndlr             /home/junghyun/topst/cr5-bsp/sources/build/tcc805x/gcc/tcc805x-freertos-debug/obj/freertos.o
                                                  /home/junghyun/topst/cr5-bsp/sources/build/tcc805x/gcc/tcc805x-freertos-debug/obj/sal.o
FreeRTOS_ARM_ExceptSwiHndlr                       /home/junghyun/topst/cr5-bsp/sources/build/tcc805x/gcc/tcc805x-freertos-debug/obj/freertos.o
                                                  /home/junghyun/topst/cr5-bsp/sources/build/tcc805x/gcc/tcc805x-freertos-debug/obj/sal.o
FreeRTOS_ARM_ExceptUndefInstrHndlr                /home/junghyun/topst/cr5-bsp/sources/build/tcc805x/gcc/tcc805x-freertos-debug/obj/freertos.o
                                                  /home/junghyun/topst/cr5-bsp/sources/build/tcc805x/gcc/tcc805x-freertos-debug/obj/sal.o
FreeRTOS_IRQ_Handler                              /home/junghyun/topst/cr5-bsp/sources/build/tcc805x/gcc/tcc805x-freertos-debug/obj/portASM.o
                                                  /home/junghyun/topst/cr5-bsp/sources/build/tcc805x/gcc/tcc805x-freertos-debug/obj/freertos.o
FreeRTOS_SWI_Handler                              /home/junghyun/topst/cr5-bsp/sources/build/tcc805x/gcc/tcc805x-freertos-debug/obj/portASM.o
                                                  /home/junghyun/topst/cr5-bsp/sources/build/tcc805x/gcc/tcc805x-freertos-debug/obj/freertos.o
FreeRTOS_Tick_Handler                             /home/junghyun/topst/cr5-bsp/sources/build/tcc805x/gcc/tcc805x-freertos-debug/obj/port.o
                                                  /home/junghyun/topst/cr5-bsp/sources/build/tcc805x/gcc/tcc805x-freertos-debug/obj/sal_freertos_impl.o
GDMA_Initialize                                   /home/junghyun/topst/cr5-bsp/sources/build/tcc805x/gcc/tcc805x-freertos-debug/obj/gdma.o
                                                  /home/junghyun/topst/cr5-bsp/sources/build/tcc805x/gcc/tcc805x-freertos-debug/obj/gdma_test.o
GDMA_SampleForM2M                                 /home/junghyun/topst/cr5-bsp/sources/build/tcc805x/gcc/tcc805x-freertos-debug/obj/gdma_test.o
                                                  /home/junghyun/topst/cr5-bsp/sources/build/tcc805x/gcc/tcc805x-freertos-debug/obj/console.o
GDMA_TransferFunctionForM2M                       /home/junghyun/topst/cr5-bsp/sources/build/tcc805x/gcc/tcc805x-freertos-debug/obj/gdma.o
                                                  /home/junghyun/topst/cr5-bsp/sources/build/tcc805x/gcc/tcc805x-freertos-debug/obj/gdma_test.o
GIC_Init                                          /home/junghyun/topst/cr5-bsp/sources/build/tcc805x/gcc/tcc805x-freertos-debug/obj/gic.o
                                                  /home/junghyun/topst/cr5-bsp/sources/build/tcc805x/gcc/tcc805x-freertos-debug/obj/bsp.o
GIC_IntExtSet                                     /home/junghyun/topst/cr5-bsp/sources/build/tcc805x/gcc/tcc805x-freertos-debug/obj/gic.o
GIC_IntHandler                                    /home/junghyun/topst/cr5-bsp/sources/build/tcc805x/gcc/tcc805x-freertos-debug/obj/gic.o
GIC_IntHandlerWithParam                           /home/junghyun/topst/cr5-bsp/sources/build/tcc805x/gcc/tcc805x-freertos-debug/obj/gic.o
                                                  /home/junghyun/topst/cr5-bsp/sources/build/tcc805x/gcc/tcc805x-freertos-debug/obj/port.o
GIC_IntPrioSet                                    /home/junghyun/topst/cr5-bsp/sources/build/tcc805x/gcc/tcc805x-freertos-debug/obj/gic.o
GIC_IntSGI                                        /home/junghyun/topst/cr5-bsp/sources/build/tcc805x/gcc/tcc805x-freertos-debug/obj/gic.o
                                                  /home/junghyun/topst/cr5-bsp/sources/build/tcc805x/gcc/tcc805x-freertos-debug/obj/gic_test.o
GIC_IntSrcDis                                     /home/junghyun/topst/cr5-bsp/sources/build/tcc805x/gcc/tcc805x-freertos-debug/obj/gic.o
                                                  /home/junghyun/topst/cr5-bsp/sources/build/tcc805x/gcc/tcc805x-freertos-debug/obj/dse.o
                                                  /home/junghyun/topst/cr5-bsp/sources/build/tcc805x/gcc/tcc805x-freertos-debug/obj/wdt.o
                                                  /home/junghyun/topst/cr5-bsp/sources/build/tcc805x/gcc/tcc805x-freertos-debug/obj/uart.o
                                                  /home/junghyun/topst/cr5-bsp/sources/build/tcc805x/gcc/tcc805x-freertos-debug/obj/gpsb.o
                                                  /home/junghyun/topst/cr5-bsp/sources/build/tcc805x/gcc/tcc805x-freertos-debug/obj/i2c.o
                                                  /home/junghyun/topst/cr5-bsp/sources/build/tcc805x/gcc/tcc805x-freertos-debug/obj/fmu.o
                                                  /home/junghyun/topst/cr5-bsp/sources/build/tcc805x/gcc/tcc805x-freertos-debug/obj/can_porting.o
                                                  /home/junghyun/topst/cr5-bsp/sources/build/tcc805x/gcc/tcc805x-freertos-debug/obj/adc.o
                                                  /home/junghyun/topst/cr5-bsp/sources/build/tcc805x/gcc/tcc805x-freertos-debug/obj/ipc_os.o
                                                  /home/junghyun/topst/cr5-bsp/sources/build/tcc805x/gcc/tcc805x-freertos-debug/obj/timer_test.o
                                                  /home/junghyun/topst/cr5-bsp/sources/build/tcc805x/gcc/tcc805x-freertos-debug/obj/gic_test.o
                                                  /home/junghyun/topst/cr5-bsp/sources/build/tcc805x/gcc/tcc805x-freertos-debug/obj/fwug.o
GIC_IntSrcEn                                      /home/junghyun/topst/cr5-bsp/sources/build/tcc805x/gcc/tcc805x-freertos-debug/obj/gic.o
                                                  /home/junghyun/topst/cr5-bsp/sources/build/tcc805x/gcc/tcc805x-freertos-debug/obj/port.o
                                                  /home/junghyun/topst/cr5-bsp/sources/build/tcc805x/gcc/tcc805x-freertos-debug/obj/pmu_reset.o
                                                  /home/junghyun/topst/cr5-bsp/sources/build/tcc805x/gcc/tcc805x-freertos-debug/obj/dse.o
                                                  /home/junghyun/topst/cr5-bsp/sources/build/tcc805x/gcc/tcc805x-freertos-debug/obj/wdt.o
                                                  /home/junghyun/topst/cr5-bsp/sources/build/tcc805x/gcc/tcc805x-freertos-debug/obj/udma.o
                                                  /home/junghyun/topst/cr5-bsp/sources/build/tcc805x/gcc/tcc805x-freertos-debug/obj/uart.o
                                                  /home/junghyun/topst/cr5-bsp/sources/build/tcc805x/gcc/tcc805x-freertos-debug/obj/gpsb.o
                                                  /home/junghyun/topst/cr5-bsp/sources/build/tcc805x/gcc/tcc805x-freertos-debug/obj/pmio_dev.o
                                                  /home/junghyun/topst/cr5-bsp/sources/build/tcc805x/gcc/tcc805x-freertos-debug/obj/mbox_dev.o
                                                  /home/junghyun/topst/cr5-bsp/sources/build/tcc805x/gcc/tcc805x-freertos-debug/obj/ictc.o
                                                  /home/junghyun/topst/cr5-bsp/sources/build/tcc805x/gcc/tcc805x-freertos-debug/obj/i2c.o
                                                  /home/junghyun/topst/cr5-bsp/sources/build/tcc805x/gcc/tcc805x-freertos-debug/obj/gdma.o
                                                  /home/junghyun/topst/cr5-bsp/sources/build/tcc805x/gcc/tcc805x-freertos-debug/obj/fmu.o
                                                  /home/junghyun/topst/cr5-bsp/sources/build/tcc805x/gcc/tcc805x-freertos-debug/obj/can_porting.o
                                                  /home/junghyun/topst/cr5-bsp/sources/build/tcc805x/gcc/tcc805x-freertos-debug/obj/adc.o
                                                  /home/junghyun/topst/cr5-bsp/sources/build/tcc805x/gcc/tcc805x-freertos-debug/obj/ipc_os.o
                                                  /home/junghyun/topst/cr5-bsp/sources/build/tcc805x/gcc/tcc805x-freertos-debug/obj/wdt_test.o
                                                  /home/junghyun/topst/cr5-bsp/sources/build/tcc805x/gcc/tcc805x-freertos-debug/obj/timer_test.o
                                                  /home/junghyun/topst/cr5-bsp/sources/build/tcc805x/gcc/tcc805x-freertos-debug/obj/gic_test.o
GIC_IntVectSet                                    /home/junghyun/topst/cr5-bsp/sources/build/tcc805x/gcc/tcc805x-freertos-debug/obj/gic.o
                                                  /home/junghyun/topst/cr5-bsp/sources/build/tcc805x/gcc/tcc805x-freertos-debug/obj/port.o
                                                  /home/junghyun/topst/cr5-bsp/sources/build/tcc805x/gcc/tcc805x-freertos-debug/obj/pmu_reset.o
                                                  /home/junghyun/topst/cr5-bsp/sources/build/tcc805x/gcc/tcc805x-freertos-debug/obj/dse.o
                                                  /home/junghyun/topst/cr5-bsp/sources/build/tcc805x/gcc/tcc805x-freertos-debug/obj/wdt.o
                                                  /home/junghyun/topst/cr5-bsp/sources/build/tcc805x/gcc/tcc805x-freertos-debug/obj/udma.o
                                                  /home/junghyun/topst/cr5-bsp/sources/build/tcc805x/gcc/tcc805x-freertos-debug/obj/uart.o
                                                  /home/junghyun/topst/cr5-bsp/sources/build/tcc805x/gcc/tcc805x-freertos-debug/obj/timer.o
                                                  /home/junghyun/topst/cr5-bsp/sources/build/tcc805x/gcc/tcc805x-freertos-debug/obj/gpsb.o
                                                  /home/junghyun/topst/cr5-bsp/sources/build/tcc805x/gcc/tcc805x-freertos-debug/obj/pmio_dev.o
                                                  /home/junghyun/topst/cr5-bsp/sources/build/tcc805x/gcc/tcc805x-freertos-debug/obj/mbox_dev.o
                                                  /home/junghyun/topst/cr5-bsp/sources/build/tcc805x/gcc/tcc805x-freertos-debug/obj/ictc.o
                                                  /home/junghyun/topst/cr5-bsp/sources/build/tcc805x/gcc/tcc805x-freertos-debug/obj/i2c.o
                                                  /home/junghyun/topst/cr5-bsp/sources/build/tcc805x/gcc/tcc805x-freertos-debug/obj/gdma.o
                                                  /home/junghyun/topst/cr5-bsp/sources/build/tcc805x/gcc/tcc805x-freertos-debug/obj/fmu.o
                                                  /home/junghyun/topst/cr5-bsp/sources/build/tcc805x/gcc/tcc805x-freertos-debug/obj/can_porting.o
                                                  /home/junghyun/topst/cr5-bsp/sources/build/tcc805x/gcc/tcc805x-freertos-debug/obj/adc.o
                                                  /home/junghyun/topst/cr5-bsp/sources/build/tcc805x/gcc/tcc805x-freertos-debug/obj/ipc_os.o
                                                  /home/junghyun/topst/cr5-bsp/sources/build/tcc805x/gcc/tcc805x-freertos-debug/obj/timer_test.o
                                                  /home/junghyun/topst/cr5-bsp/sources/build/tcc805x/gcc/tcc805x-freertos-debug/obj/gic_test.o
GIC_SmIrqEn                                       /home/junghyun/topst/cr5-bsp/sources/build/tcc805x/gcc/tcc805x-freertos-debug/obj/gic.o
                                                  /home/junghyun/topst/cr5-bsp/sources/build/tcc805x/gcc/tcc805x-freertos-debug/obj/gic_test.o
GIC_SmIrqSetHigh                                  /home/junghyun/topst/cr5-bsp/sources/build/tcc805x/gcc/tcc805x-freertos-debug/obj/gic.o
                                                  /home/junghyun/topst/cr5-bsp/sources/build/tcc805x/gcc/tcc805x-freertos-debug/obj/gic_test.o
GIC_Test_Sgi                                      /home/junghyun/topst/cr5-bsp/sources/build/tcc805x/gcc/tcc805x-freertos-debug/obj/gic_test.o
                                                  /home/junghyun/topst/cr5-bsp/sources/build/tcc805x/gcc/tcc805x-freertos-debug/obj/console.o
GIC_Test_SmInt                                    /home/junghyun/topst/cr5-bsp/sources/build/tcc805x/gcc/tcc805x-freertos-debug/obj/gic_test.o
                                                  /home/junghyun/topst/cr5-bsp/sources/build/tcc805x/gcc/tcc805x-freertos-debug/obj/console.o
GPIO_Config                                       /home/junghyun/topst/cr5-bsp/sources/build/tcc805x/gcc/tcc805x-freertos-debug/obj/gpio.o
                                                  /home/junghyun/topst/cr5-bsp/sources/build/tcc805x/gcc/tcc805x-freertos-debug/obj/uart.o
                                                  /home/junghyun/topst/cr5-bsp/sources/build/tcc805x/gcc/tcc805x-freertos-debug/obj/gpsb.o
                                                  /home/junghyun/topst/cr5-bsp/sources/build/tcc805x/gcc/tcc805x-freertos-debug/obj/i2c.o
                                                  /home/junghyun/topst/cr5-bsp/sources/build/tcc805x/gcc/tcc805x-freertos-debug/obj/can_porting.o
                                                  /home/junghyun/topst/cr5-bsp/sources/build/tcc805x/gcc/tcc805x-freertos-debug/obj/lin.o
                                                  /home/junghyun/topst/cr5-bsp/sources/build/tcc805x/gcc/tcc805x-freertos-debug/obj/mptool.o
                                                  /home/junghyun/topst/cr5-bsp/sources/build/tcc805x/gcc/tcc805x-freertos-debug/obj/pdm_test.o
                                                  /home/junghyun/topst/cr5-bsp/sources/build/tcc805x/gcc/tcc805x-freertos-debug/obj/ictc_test.o
                                                  /home/junghyun/topst/cr5-bsp/sources/build/tcc805x/gcc/tcc805x-freertos-debug/obj/gpio_test.o
                                                  /home/junghyun/topst/cr5-bsp/sources/build/tcc805x/gcc/tcc805x-freertos-debug/obj/key_gpio.o
                                                  /home/junghyun/topst/cr5-bsp/sources/build/tcc805x/gcc/tcc805x-freertos-debug/obj/key_adc.o
GPIO_Get                                          /home/junghyun/topst/cr5-bsp/sources/build/tcc805x/gcc/tcc805x-freertos-debug/obj/gpio.o
                                                  /home/junghyun/topst/cr5-bsp/sources/build/tcc805x/gcc/tcc805x-freertos-debug/obj/mptool.o
                                                  /home/junghyun/topst/cr5-bsp/sources/build/tcc805x/gcc/tcc805x-freertos-debug/obj/key_gpio.o
                                                  /home/junghyun/topst/cr5-bsp/sources/build/tcc805x/gcc/tcc805x-freertos-debug/obj/key_adc.o
GPIO_Set                                          /home/junghyun/topst/cr5-bsp/sources/build/tcc805x/gcc/tcc805x-freertos-debug/obj/gpio.o
                                                  /home/junghyun/topst/cr5-bsp/sources/build/tcc805x/gcc/tcc805x-freertos-debug/obj/gpsb.o
                                                  /home/junghyun/topst/cr5-bsp/sources/build/tcc805x/gcc/tcc805x-freertos-debug/obj/can_porting.o
                                                  /home/junghyun/topst/cr5-bsp/sources/build/tcc805x/gcc/tcc805x-freertos-debug/obj/lin.o
                                                  /home/junghyun/topst/cr5-bsp/sources/build/tcc805x/gcc/tcc805x-freertos-debug/obj/mptool.o
GPIO_StartGpioTest                                /home/junghyun/topst/cr5-bsp/sources/build/tcc805x/gcc/tcc805x-freertos-debug/obj/gpio_test.o
                                                  /home/junghyun/topst/cr5-bsp/sources/build/tcc805x/gcc/tcc805x-freertos-debug/obj/console.o
GPIO_ToNum                                        /home/junghyun/topst/cr5-bsp/sources/build/tcc805x/gcc/tcc805x-freertos-debug/obj/gpio.o
                                                  /home/junghyun/topst/cr5-bsp/sources/build/tcc805x/gcc/tcc805x-freertos-debug/obj/gpsb.o
GPSB_BitCSet                                      /home/junghyun/topst/cr5-bsp/sources/build/tcc805x/gcc/tcc805x-freertos-debug/obj/gpsb.o
GPSB_BitClear                                     /home/junghyun/topst/cr5-bsp/sources/build/tcc805x/gcc/tcc805x-freertos-debug/obj/gpsb.o
GPSB_BitSClear                                    /home/junghyun/topst/cr5-bsp/sources/build/tcc805x/gcc/tcc805x-freertos-debug/obj/gpsb.o
GPSB_BitSet                                       /home/junghyun/topst/cr5-bsp/sources/build/tcc805x/gcc/tcc805x-freertos-debug/obj/gpsb.o
GPSB_ClearLbCfg                                   /home/junghyun/topst/cr5-bsp/sources/build/tcc805x/gcc/tcc805x-freertos-debug/obj/gpsb.o
GPSB_Close                                        /home/junghyun/topst/cr5-bsp/sources/build/tcc805x/gcc/tcc805x-freertos-debug/obj/gpsb.o
                                                  /home/junghyun/topst/cr5-bsp/sources/build/tcc805x/gcc/tcc805x-freertos-debug/obj/sdm.o
                                                  /home/junghyun/topst/cr5-bsp/sources/build/tcc805x/gcc/tcc805x-freertos-debug/obj/gpsb_test.o
GPSB_CsActivate                                   /home/junghyun/topst/cr5-bsp/sources/build/tcc805x/gcc/tcc805x-freertos-debug/obj/gpsb.o
                                                  /home/junghyun/topst/cr5-bsp/sources/build/tcc805x/gcc/tcc805x-freertos-debug/obj/gpsb_test.o
GPSB_CsAlloc                                      /home/junghyun/topst/cr5-bsp/sources/build/tcc805x/gcc/tcc805x-freertos-debug/obj/gpsb.o
                                                  /home/junghyun/topst/cr5-bsp/sources/build/tcc805x/gcc/tcc805x-freertos-debug/obj/gpsb_test.o
GPSB_CsDeactivate                                 /home/junghyun/topst/cr5-bsp/sources/build/tcc805x/gcc/tcc805x-freertos-debug/obj/gpsb.o
                                                  /home/junghyun/topst/cr5-bsp/sources/build/tcc805x/gcc/tcc805x-freertos-debug/obj/gpsb_test.o
GPSB_CsInit                                       /home/junghyun/topst/cr5-bsp/sources/build/tcc805x/gcc/tcc805x-freertos-debug/obj/gpsb.o
                                                  /home/junghyun/topst/cr5-bsp/sources/build/tcc805x/gcc/tcc805x-freertos-debug/obj/gpsb_test.o
GPSB_Deinit                                       /home/junghyun/topst/cr5-bsp/sources/build/tcc805x/gcc/tcc805x-freertos-debug/obj/gpsb.o
GPSB_Init                                         /home/junghyun/topst/cr5-bsp/sources/build/tcc805x/gcc/tcc805x-freertos-debug/obj/gpsb.o
                                                  /home/junghyun/topst/cr5-bsp/sources/build/tcc805x/gcc/tcc805x-freertos-debug/obj/bsp.o
GPSB_Open                                         /home/junghyun/topst/cr5-bsp/sources/build/tcc805x/gcc/tcc805x-freertos-debug/obj/gpsb.o
                                                  /home/junghyun/topst/cr5-bsp/sources/build/tcc805x/gcc/tcc805x-freertos-debug/obj/sdm.o
                                                  /home/junghyun/topst/cr5-bsp/sources/build/tcc805x/gcc/tcc805x-freertos-debug/obj/gpsb_test.o
GPSB_Reset                                        /home/junghyun/topst/cr5-bsp/sources/build/tcc805x/gcc/tcc805x-freertos-debug/obj/gpsb.o
GPSB_SafetyDisableLock                            /home/junghyun/topst/cr5-bsp/sources/build/tcc805x/gcc/tcc805x-freertos-debug/obj/gpsb.o
                                                  /home/junghyun/topst/cr5-bsp/sources/build/tcc805x/gcc/tcc805x-freertos-debug/obj/gpsb_test.o
GPSB_SafetyDisableLoopback                        /home/junghyun/topst/cr5-bsp/sources/build/tcc805x/gcc/tcc805x-freertos-debug/obj/gpsb.o
                                                  /home/junghyun/topst/cr5-bsp/sources/build/tcc805x/gcc/tcc805x-freertos-debug/obj/gpsb_test.o
GPSB_SafetyDisableMonitor                         /home/junghyun/topst/cr5-bsp/sources/build/tcc805x/gcc/tcc805x-freertos-debug/obj/gpsb.o
                                                  /home/junghyun/topst/cr5-bsp/sources/build/tcc805x/gcc/tcc805x-freertos-debug/obj/gpsb_test.o
GPSB_SafetyEnableLock                             /home/junghyun/topst/cr5-bsp/sources/build/tcc805x/gcc/tcc805x-freertos-debug/obj/gpsb.o
                                                  /home/junghyun/topst/cr5-bsp/sources/build/tcc805x/gcc/tcc805x-freertos-debug/obj/gpsb_test.o
GPSB_SafetyEnableLoopback                         /home/junghyun/topst/cr5-bsp/sources/build/tcc805x/gcc/tcc805x-freertos-debug/obj/gpsb.o
                                                  /home/junghyun/topst/cr5-bsp/sources/build/tcc805x/gcc/tcc805x-freertos-debug/obj/gpsb_test.o
GPSB_SafetyEnableMonitor                          /home/junghyun/topst/cr5-bsp/sources/build/tcc805x/gcc/tcc805x-freertos-debug/obj/gpsb.o
                                                  /home/junghyun/topst/cr5-bsp/sources/build/tcc805x/gcc/tcc805x-freertos-debug/obj/gpsb_test.o
GPSB_SafetyGetStatus                              /home/junghyun/topst/cr5-bsp/sources/build/tcc805x/gcc/tcc805x-freertos-debug/obj/gpsb.o
                                                  /home/junghyun/topst/cr5-bsp/sources/build/tcc805x/gcc/tcc805x-freertos-debug/obj/gpsb_test.o
GPSB_SetBpw                                       /home/junghyun/topst/cr5-bsp/sources/build/tcc805x/gcc/tcc805x-freertos-debug/obj/gpsb.o
                                                  /home/junghyun/topst/cr5-bsp/sources/build/tcc805x/gcc/tcc805x-freertos-debug/obj/sdm.o
                                                  /home/junghyun/topst/cr5-bsp/sources/build/tcc805x/gcc/tcc805x-freertos-debug/obj/gpsb_test.o
GPSB_SetBpwNoSwap                                 /home/junghyun/topst/cr5-bsp/sources/build/tcc805x/gcc/tcc805x-freertos-debug/obj/gpsb.o
GPSB_SetLbCfg                                     /home/junghyun/topst/cr5-bsp/sources/build/tcc805x/gcc/tcc805x-freertos-debug/obj/gpsb.o
GPSB_SetMode                                      /home/junghyun/topst/cr5-bsp/sources/build/tcc805x/gcc/tcc805x-freertos-debug/obj/gpsb.o
                                                  /home/junghyun/topst/cr5-bsp/sources/build/tcc805x/gcc/tcc805x-freertos-debug/obj/sdm.o
                                                  /home/junghyun/topst/cr5-bsp/sources/build/tcc805x/gcc/tcc805x-freertos-debug/obj/gpsb_test.o
GPSB_SetRvcChannel                                /home/junghyun/topst/cr5-bsp/sources/build/tcc805x/gcc/tcc805x-freertos-debug/obj/gpsb.o
                                                  /home/junghyun/topst/cr5-bsp/sources/build/tcc805x/gcc/tcc805x-freertos-debug/obj/gpsb_test.o
GPSB_SetRvcExtPort                                /home/junghyun/topst/cr5-bsp/sources/build/tcc805x/gcc/tcc805x-freertos-debug/obj/gpsb.o
GPSB_SetSdmChannel                                /home/junghyun/topst/cr5-bsp/sources/build/tcc805x/gcc/tcc805x-freertos-debug/obj/gpsb.o
                                                  /home/junghyun/topst/cr5-bsp/sources/build/tcc805x/gcc/tcc805x-freertos-debug/obj/gpsb_test.o
GPSB_SetSdmExtPort                                /home/junghyun/topst/cr5-bsp/sources/build/tcc805x/gcc/tcc805x-freertos-debug/obj/gpsb.o
GPSB_SetSpeed                                     /home/junghyun/topst/cr5-bsp/sources/build/tcc805x/gcc/tcc805x-freertos-debug/obj/gpsb.o
                                                  /home/junghyun/topst/cr5-bsp/sources/build/tcc805x/gcc/tcc805x-freertos-debug/obj/sdm.o
                                                  /home/junghyun/topst/cr5-bsp/sources/build/tcc805x/gcc/tcc805x-freertos-debug/obj/gpsb_test.o
GPSB_Test                                         /home/junghyun/topst/cr5-bsp/sources/build/tcc805x/gcc/tcc805x-freertos-debug/obj/gpsb_test.o
                                                  /home/junghyun/topst/cr5-bsp/sources/build/tcc805x/gcc/tcc805x-freertos-debug/obj/console.o
GPSB_Xfer                                         /home/junghyun/topst/cr5-bsp/sources/build/tcc805x/gcc/tcc805x-freertos-debug/obj/gpsb.o
                                                  /home/junghyun/topst/cr5-bsp/sources/build/tcc805x/gcc/tcc805x-freertos-debug/obj/sdm.o
                                                  /home/junghyun/topst/cr5-bsp/sources/build/tcc805x/gcc/tcc805x-freertos-debug/obj/gpsb_test.o
GPSB_XferAbort                                    /home/junghyun/topst/cr5-bsp/sources/build/tcc805x/gcc/tcc805x-freertos-debug/obj/gpsb.o
HSM_BlockApSystem                                 /home/junghyun/topst/cr5-bsp/sources/build/tcc805x/gcc/tcc805x-freertos-debug/obj/hsm_manager.o
                                                  /home/junghyun/topst/cr5-bsp/sources/build/tcc805x/gcc/tcc805x-freertos-debug/obj/hsm_test.o
HSM_GenHash                                       /home/junghyun/topst/cr5-bsp/sources/build/tcc805x/gcc/tcc805x-freertos-debug/obj/hsm_manager.o
                                                  /home/junghyun/topst/cr5-bsp/sources/build/tcc805x/gcc/tcc805x-freertos-debug/obj/hsm_test.o
HSM_GenMac                                        /home/junghyun/topst/cr5-bsp/sources/build/tcc805x/gcc/tcc805x-freertos-debug/obj/hsm_manager.o
                                                  /home/junghyun/topst/cr5-bsp/sources/build/tcc805x/gcc/tcc805x-freertos-debug/obj/hsm_test.o
HSM_GenMacByKt                                    /home/junghyun/topst/cr5-bsp/sources/build/tcc805x/gcc/tcc805x-freertos-debug/obj/hsm_manager.o
                                                  /home/junghyun/topst/cr5-bsp/sources/build/tcc805x/gcc/tcc805x-freertos-debug/obj/hsm_test.o
HSM_GetRand                                       /home/junghyun/topst/cr5-bsp/sources/build/tcc805x/gcc/tcc805x-freertos-debug/obj/hsm_manager.o
                                                  /home/junghyun/topst/cr5-bsp/sources/build/tcc805x/gcc/tcc805x-freertos-debug/obj/hsm_test.o
HSM_GetVersion                                    /home/junghyun/topst/cr5-bsp/sources/build/tcc805x/gcc/tcc805x-freertos-debug/obj/hsm_manager.o
                                                  /home/junghyun/topst/cr5-bsp/sources/build/tcc805x/gcc/tcc805x-freertos-debug/obj/hsm_test.o
HSM_Init                                          /home/junghyun/topst/cr5-bsp/sources/build/tcc805x/gcc/tcc805x-freertos-debug/obj/hsm_manager.o
                                                  /home/junghyun/topst/cr5-bsp/sources/build/tcc805x/gcc/tcc805x-freertos-debug/obj/hsm_test.o
                                                  /home/junghyun/topst/cr5-bsp/sources/build/tcc805x/gcc/tcc805x-freertos-debug/obj/fwug.o
HSM_RunAes                                        /home/junghyun/topst/cr5-bsp/sources/build/tcc805x/gcc/tcc805x-freertos-debug/obj/hsm_manager.o
                                                  /home/junghyun/topst/cr5-bsp/sources/build/tcc805x/gcc/tcc805x-freertos-debug/obj/hsm_test.o
HSM_RunAesByKt                                    /home/junghyun/topst/cr5-bsp/sources/build/tcc805x/gcc/tcc805x-freertos-debug/obj/hsm_manager.o
                                                  /home/junghyun/topst/cr5-bsp/sources/build/tcc805x/gcc/tcc805x-freertos-debug/obj/hsm_test.o
HSM_RunEcdsa                                      /home/junghyun/topst/cr5-bsp/sources/build/tcc805x/gcc/tcc805x-freertos-debug/obj/hsm_manager.o
                                                  /home/junghyun/topst/cr5-bsp/sources/build/tcc805x/gcc/tcc805x-freertos-debug/obj/hsm_test.o
HSM_RunRsa                                        /home/junghyun/topst/cr5-bsp/sources/build/tcc805x/gcc/tcc805x-freertos-debug/obj/hsm_manager.o
                                                  /home/junghyun/topst/cr5-bsp/sources/build/tcc805x/gcc/tcc805x-freertos-debug/obj/hsm_test.o
HSM_SetKey                                        /home/junghyun/topst/cr5-bsp/sources/build/tcc805x/gcc/tcc805x-freertos-debug/obj/hsm_manager.o
                                                  /home/junghyun/topst/cr5-bsp/sources/build/tcc805x/gcc/tcc805x-freertos-debug/obj/hsm_test.o
HSM_Test                                          /home/junghyun/topst/cr5-bsp/sources/build/tcc805x/gcc/tcc805x-freertos-debug/obj/hsm_test.o
                                                  /home/junghyun/topst/cr5-bsp/sources/build/tcc805x/gcc/tcc805x-freertos-debug/obj/console.o
HSM_VerifyFw                                      /home/junghyun/topst/cr5-bsp/sources/build/tcc805x/gcc/tcc805x-freertos-debug/obj/hsm_manager.o
                                                  /home/junghyun/topst/cr5-bsp/sources/build/tcc805x/gcc/tcc805x-freertos-debug/obj/fwug.o
HSM_Write                                         /home/junghyun/topst/cr5-bsp/sources/build/tcc805x/gcc/tcc805x-freertos-debug/obj/hsm_manager.o
                                                  /home/junghyun/topst/cr5-bsp/sources/build/tcc805x/gcc/tcc805x-freertos-debug/obj/hsm_test.o
I2C_Close                                         /home/junghyun/topst/cr5-bsp/sources/build/tcc805x/gcc/tcc805x-freertos-debug/obj/i2c.o
                                                  /home/junghyun/topst/cr5-bsp/sources/build/tcc805x/gcc/tcc805x-freertos-debug/obj/i2c_test.o
I2C_Deinit                                        /home/junghyun/topst/cr5-bsp/sources/build/tcc805x/gcc/tcc805x-freertos-debug/obj/i2c.o
I2C_GetMachineState                               /home/junghyun/topst/cr5-bsp/sources/build/tcc805x/gcc/tcc805x-freertos-debug/obj/i2c.o
I2C_Init                                          /home/junghyun/topst/cr5-bsp/sources/build/tcc805x/gcc/tcc805x-freertos-debug/obj/i2c.o
                                                  /home/junghyun/topst/cr5-bsp/sources/build/tcc805x/gcc/tcc805x-freertos-debug/obj/bsp.o
I2C_Open                                          /home/junghyun/topst/cr5-bsp/sources/build/tcc805x/gcc/tcc805x-freertos-debug/obj/i2c.o
                                                  /home/junghyun/topst/cr5-bsp/sources/build/tcc805x/gcc/tcc805x-freertos-debug/obj/project_i2c.o
                                                  /home/junghyun/topst/cr5-bsp/sources/build/tcc805x/gcc/tcc805x-freertos-debug/obj/i2c_test.o
                                                  /home/junghyun/topst/cr5-bsp/sources/build/tcc805x/gcc/tcc805x-freertos-debug/obj/key_i2c.o
I2C_ScanSlave                                     /home/junghyun/topst/cr5-bsp/sources/build/tcc805x/gcc/tcc805x-freertos-debug/obj/i2c.o
                                                  /home/junghyun/topst/cr5-bsp/sources/build/tcc805x/gcc/tcc805x-freertos-debug/obj/i2c_test.o
I2C_TestMain                                      /home/junghyun/topst/cr5-bsp/sources/build/tcc805x/gcc/tcc805x-freertos-debug/obj/i2c_test.o
                                                  /home/junghyun/topst/cr5-bsp/sources/build/tcc805x/gcc/tcc805x-freertos-debug/obj/console.o
I2C_Xfer                                          /home/junghyun/topst/cr5-bsp/sources/build/tcc805x/gcc/tcc805x-freertos-debug/obj/i2c.o
                                                  /home/junghyun/topst/cr5-bsp/sources/build/tcc805x/gcc/tcc805x-freertos-debug/obj/project_i2c.o
                                                  /home/junghyun/topst/cr5-bsp/sources/build/tcc805x/gcc/tcc805x-freertos-debug/obj/key_i2c.o
I2C_XferCmd                                       /home/junghyun/topst/cr5-bsp/sources/build/tcc805x/gcc/tcc805x-freertos-debug/obj/i2c.o
                                                  /home/junghyun/topst/cr5-bsp/sources/build/tcc805x/gcc/tcc805x-freertos-debug/obj/i2c_test.o
                                                  /home/junghyun/topst/cr5-bsp/sources/build/tcc805x/gcc/tcc805x-freertos-debug/obj/key_i2c.o
I2cRead                                           /home/junghyun/topst/cr5-bsp/sources/build/tcc805x/gcc/tcc805x-freertos-debug/obj/project_i2c.o
ICTC_Deinit                                       /home/junghyun/topst/cr5-bsp/sources/build/tcc805x/gcc/tcc805x-freertos-debug/obj/ictc.o
ICTC_DisableCapture                               /home/junghyun/topst/cr5-bsp/sources/build/tcc805x/gcc/tcc805x-freertos-debug/obj/ictc.o
                                                  /home/junghyun/topst/cr5-bsp/sources/build/tcc805x/gcc/tcc805x-freertos-debug/obj/ictc_test.o
ICTC_EnableCapture                                /home/junghyun/topst/cr5-bsp/sources/build/tcc805x/gcc/tcc805x-freertos-debug/obj/ictc.o
                                                  /home/junghyun/topst/cr5-bsp/sources/build/tcc805x/gcc/tcc805x-freertos-debug/obj/ictc_test.o
ICTC_GetCurEdgeCnt                                /home/junghyun/topst/cr5-bsp/sources/build/tcc805x/gcc/tcc805x-freertos-debug/obj/ictc.o
ICTC_GetFEdgeTstmpCnt                             /home/junghyun/topst/cr5-bsp/sources/build/tcc805x/gcc/tcc805x-freertos-debug/obj/ictc.o
ICTC_GetPreDutyCnt                                /home/junghyun/topst/cr5-bsp/sources/build/tcc805x/gcc/tcc805x-freertos-debug/obj/ictc.o
ICTC_GetPrevPeriodCnt                             /home/junghyun/topst/cr5-bsp/sources/build/tcc805x/gcc/tcc805x-freertos-debug/obj/ictc.o
ICTC_GetPrvEdgeCnt                                /home/junghyun/topst/cr5-bsp/sources/build/tcc805x/gcc/tcc805x-freertos-debug/obj/ictc.o
ICTC_GetREdgeTstmpCnt                             /home/junghyun/topst/cr5-bsp/sources/build/tcc805x/gcc/tcc805x-freertos-debug/obj/ictc.o
ICTC_Init                                         /home/junghyun/topst/cr5-bsp/sources/build/tcc805x/gcc/tcc805x-freertos-debug/obj/ictc.o
                                                  /home/junghyun/topst/cr5-bsp/sources/build/tcc805x/gcc/tcc805x-freertos-debug/obj/ictc_test.o
ICTC_SelectTestCase                               /home/junghyun/topst/cr5-bsp/sources/build/tcc805x/gcc/tcc805x-freertos-debug/obj/ictc_test.o
                                                  /home/junghyun/topst/cr5-bsp/sources/build/tcc805x/gcc/tcc805x-freertos-debug/obj/console.o
ICTC_SetCallBackFunc                              /home/junghyun/topst/cr5-bsp/sources/build/tcc805x/gcc/tcc805x-freertos-debug/obj/ictc.o
                                                  /home/junghyun/topst/cr5-bsp/sources/build/tcc805x/gcc/tcc805x-freertos-debug/obj/ictc_test.o
ICTC_SetCompareRoundValue                         /home/junghyun/topst/cr5-bsp/sources/build/tcc805x/gcc/tcc805x-freertos-debug/obj/ictc.o
                                                  /home/junghyun/topst/cr5-bsp/sources/build/tcc805x/gcc/tcc805x-freertos-debug/obj/ictc_test.o
ICTC_SetEdgeMatchingValue                         /home/junghyun/topst/cr5-bsp/sources/build/tcc805x/gcc/tcc805x-freertos-debug/obj/ictc.o
                                                  /home/junghyun/topst/cr5-bsp/sources/build/tcc805x/gcc/tcc805x-freertos-debug/obj/ictc_test.o
ICTC_SetIRQCtrlReg                                /home/junghyun/topst/cr5-bsp/sources/build/tcc805x/gcc/tcc805x-freertos-debug/obj/ictc.o
                                                  /home/junghyun/topst/cr5-bsp/sources/build/tcc805x/gcc/tcc805x-freertos-debug/obj/ictc_test.o
ICTC_SetOpEnCtrlCounter                           /home/junghyun/topst/cr5-bsp/sources/build/tcc805x/gcc/tcc805x-freertos-debug/obj/ictc.o
                                                  /home/junghyun/topst/cr5-bsp/sources/build/tcc805x/gcc/tcc805x-freertos-debug/obj/ictc_test.o
ICTC_SetOpModeCtrlReg                             /home/junghyun/topst/cr5-bsp/sources/build/tcc805x/gcc/tcc805x-freertos-debug/obj/ictc.o
                                                  /home/junghyun/topst/cr5-bsp/sources/build/tcc805x/gcc/tcc805x-freertos-debug/obj/ictc_test.o
ICTC_SetTimeoutValue                              /home/junghyun/topst/cr5-bsp/sources/build/tcc805x/gcc/tcc805x-freertos-debug/obj/ictc.o
                                                  /home/junghyun/topst/cr5-bsp/sources/build/tcc805x/gcc/tcc805x-freertos-debug/obj/ictc_test.o
IPC_BufferDataAvailable                           /home/junghyun/topst/cr5-bsp/sources/build/tcc805x/gcc/tcc805x-freertos-debug/obj/ipc_buffer.o
                                                  /home/junghyun/topst/cr5-bsp/sources/build/tcc805x/gcc/tcc805x-freertos-debug/obj/ipc_ctl.o
IPC_BufferFlush                                   /home/junghyun/topst/cr5-bsp/sources/build/tcc805x/gcc/tcc805x-freertos-debug/obj/ipc_buffer.o
                                                  /home/junghyun/topst/cr5-bsp/sources/build/tcc805x/gcc/tcc805x-freertos-debug/obj/ipc_ctl.o
IPC_BufferFlushByte                               /home/junghyun/topst/cr5-bsp/sources/build/tcc805x/gcc/tcc805x-freertos-debug/obj/ipc_buffer.o
IPC_BufferFreeSpace                               /home/junghyun/topst/cr5-bsp/sources/build/tcc805x/gcc/tcc805x-freertos-debug/obj/ipc_buffer.o
                                                  /home/junghyun/topst/cr5-bsp/sources/build/tcc805x/gcc/tcc805x-freertos-debug/obj/ipc_ctl.o
IPC_BufferGetHead                                 /home/junghyun/topst/cr5-bsp/sources/build/tcc805x/gcc/tcc805x-freertos-debug/obj/ipc_buffer.o
IPC_BufferGetTail                                 /home/junghyun/topst/cr5-bsp/sources/build/tcc805x/gcc/tcc805x-freertos-debug/obj/ipc_buffer.o
IPC_BufferInit                                    /home/junghyun/topst/cr5-bsp/sources/build/tcc805x/gcc/tcc805x-freertos-debug/obj/ipc_buffer.o
                                                  /home/junghyun/topst/cr5-bsp/sources/build/tcc805x/gcc/tcc805x-freertos-debug/obj/ipc_ctl.o
IPC_BufferOverFlowWaitEventTimeOut                /home/junghyun/topst/cr5-bsp/sources/build/tcc805x/gcc/tcc805x-freertos-debug/obj/ipc_os.o
IPC_BufferOverFlowWakeUp                          /home/junghyun/topst/cr5-bsp/sources/build/tcc805x/gcc/tcc805x-freertos-debug/obj/ipc_os.o
                                                  /home/junghyun/topst/cr5-bsp/sources/build/tcc805x/gcc/tcc805x-freertos-debug/obj/ipc_ctl.o
IPC_BufferSetHead                                 /home/junghyun/topst/cr5-bsp/sources/build/tcc805x/gcc/tcc805x-freertos-debug/obj/ipc_buffer.o
IPC_BufferSetTail                                 /home/junghyun/topst/cr5-bsp/sources/build/tcc805x/gcc/tcc805x-freertos-debug/obj/ipc_buffer.o
IPC_CalcCrc16                                     /home/junghyun/topst/cr5-bsp/sources/build/tcc805x/gcc/tcc805x-freertos-debug/obj/ipc_api.o
                                                  /home/junghyun/topst/cr5-bsp/sources/build/tcc805x/gcc/tcc805x-freertos-debug/obj/ipc_parser.o
IPC_Close                                         /home/junghyun/topst/cr5-bsp/sources/build/tcc805x/gcc/tcc805x-freertos-debug/obj/ipc_api.o
IPC_CmdWaitEventTimeOut                           /home/junghyun/topst/cr5-bsp/sources/build/tcc805x/gcc/tcc805x-freertos-debug/obj/ipc_os.o
                                                  /home/junghyun/topst/cr5-bsp/sources/build/tcc805x/gcc/tcc805x-freertos-debug/obj/ipc_cmd.o
IPC_CmdWakePreSet                                 /home/junghyun/topst/cr5-bsp/sources/build/tcc805x/gcc/tcc805x-freertos-debug/obj/ipc_os.o
                                                  /home/junghyun/topst/cr5-bsp/sources/build/tcc805x/gcc/tcc805x-freertos-debug/obj/ipc_cmd.o
IPC_CmdWakeUp                                     /home/junghyun/topst/cr5-bsp/sources/build/tcc805x/gcc/tcc805x-freertos-debug/obj/ipc_os.o
                                                  /home/junghyun/topst/cr5-bsp/sources/build/tcc805x/gcc/tcc805x-freertos-debug/obj/ipc_ctl.o
IPC_CommonLock                                    /home/junghyun/topst/cr5-bsp/sources/build/tcc805x/gcc/tcc805x-freertos-debug/obj/ipc_os.o
                                                  /home/junghyun/topst/cr5-bsp/sources/build/tcc805x/gcc/tcc805x-freertos-debug/obj/ipc_api.o
                                                  /home/junghyun/topst/cr5-bsp/sources/build/tcc805x/gcc/tcc805x-freertos-debug/obj/ipc_ctl.o
                                                  /home/junghyun/topst/cr5-bsp/sources/build/tcc805x/gcc/tcc805x-freertos-debug/obj/ipc_cmd.o
IPC_CommonUnlock                                  /home/junghyun/topst/cr5-bsp/sources/build/tcc805x/gcc/tcc805x-freertos-debug/obj/ipc_os.o
                                                  /home/junghyun/topst/cr5-bsp/sources/build/tcc805x/gcc/tcc805x-freertos-debug/obj/ipc_api.o
                                                  /home/junghyun/topst/cr5-bsp/sources/build/tcc805x/gcc/tcc805x-freertos-debug/obj/ipc_ctl.o
                                                  /home/junghyun/topst/cr5-bsp/sources/build/tcc805x/gcc/tcc805x-freertos-debug/obj/ipc_cmd.o
IPC_Create                                        /home/junghyun/topst/cr5-bsp/sources/build/tcc805x/gcc/tcc805x-freertos-debug/obj/ipc.o
                                                  /home/junghyun/topst/cr5-bsp/sources/build/tcc805x/gcc/tcc805x-freertos-debug/obj/main.o
IPC_CreateIPCParserTask                           /home/junghyun/topst/cr5-bsp/sources/build/tcc805x/gcc/tcc805x-freertos-debug/obj/ipc_parser.o
                                                  /home/junghyun/topst/cr5-bsp/sources/build/tcc805x/gcc/tcc805x-freertos-debug/obj/ipc.o
IPC_Flush                                         /home/junghyun/topst/cr5-bsp/sources/build/tcc805x/gcc/tcc805x-freertos-debug/obj/ipc_ctl.o
IPC_FreeIrq                                       /home/junghyun/topst/cr5-bsp/sources/build/tcc805x/gcc/tcc805x-freertos-debug/obj/ipc_os.o
IPC_GetMsec                                       /home/junghyun/topst/cr5-bsp/sources/build/tcc805x/gcc/tcc805x-freertos-debug/obj/ipc_os.o
                                                  /home/junghyun/topst/cr5-bsp/sources/build/tcc805x/gcc/tcc805x-freertos-debug/obj/ipc_ctl.o
IPC_GetStatus                                     /home/junghyun/topst/cr5-bsp/sources/build/tcc805x/gcc/tcc805x-freertos-debug/obj/ipc_ctl.o
IPC_GetUsec                                       /home/junghyun/topst/cr5-bsp/sources/build/tcc805x/gcc/tcc805x-freertos-debug/obj/ipc_os.o
IPC_Initialize                                    /home/junghyun/topst/cr5-bsp/sources/build/tcc805x/gcc/tcc805x-freertos-debug/obj/ipc_ctl.o
                                                  /home/junghyun/topst/cr5-bsp/sources/build/tcc805x/gcc/tcc805x-freertos-debug/obj/ipc_api.o
IPC_Ioctl                                         /home/junghyun/topst/cr5-bsp/sources/build/tcc805x/gcc/tcc805x-freertos-debug/obj/ipc_api.o
                                                  /home/junghyun/topst/cr5-bsp/sources/build/tcc805x/gcc/tcc805x-freertos-debug/obj/ipc.o
                                                  /home/junghyun/topst/cr5-bsp/sources/build/tcc805x/gcc/tcc805x-freertos-debug/obj/ipc_parser.o
IPC_IsReady                                       /home/junghyun/topst/cr5-bsp/sources/build/tcc805x/gcc/tcc805x-freertos-debug/obj/ipc.o
                                                  /home/junghyun/topst/cr5-bsp/sources/build/tcc805x/gcc/tcc805x-freertos-debug/obj/system_monitoring.o
IPC_MboxLock                                      /home/junghyun/topst/cr5-bsp/sources/build/tcc805x/gcc/tcc805x-freertos-debug/obj/ipc_os.o
IPC_MboxUnlock                                    /home/junghyun/topst/cr5-bsp/sources/build/tcc805x/gcc/tcc805x-freertos-debug/obj/ipc_os.o
IPC_Mdelay                                        /home/junghyun/topst/cr5-bsp/sources/build/tcc805x/gcc/tcc805x-freertos-debug/obj/ipc_os.o
IPC_Open                                          /home/junghyun/topst/cr5-bsp/sources/build/tcc805x/gcc/tcc805x-freertos-debug/obj/ipc_api.o
                                                  /home/junghyun/topst/cr5-bsp/sources/build/tcc805x/gcc/tcc805x-freertos-debug/obj/ipc_parser.o
IPC_OsResourceInit                                /home/junghyun/topst/cr5-bsp/sources/build/tcc805x/gcc/tcc805x-freertos-debug/obj/ipc_os.o
                                                  /home/junghyun/topst/cr5-bsp/sources/build/tcc805x/gcc/tcc805x-freertos-debug/obj/ipc_ctl.o
IPC_OsResourceRelease                             /home/junghyun/topst/cr5-bsp/sources/build/tcc805x/gcc/tcc805x-freertos-debug/obj/ipc_os.o
                                                  /home/junghyun/topst/cr5-bsp/sources/build/tcc805x/gcc/tcc805x-freertos-debug/obj/ipc_ctl.o
IPC_PingTest                                      /home/junghyun/topst/cr5-bsp/sources/build/tcc805x/gcc/tcc805x-freertos-debug/obj/ipc_ctl.o
                                                  /home/junghyun/topst/cr5-bsp/sources/build/tcc805x/gcc/tcc805x-freertos-debug/obj/ipc_api.o
IPC_PopBuffer                                     /home/junghyun/topst/cr5-bsp/sources/build/tcc805x/gcc/tcc805x-freertos-debug/obj/ipc_buffer.o
                                                  /home/junghyun/topst/cr5-bsp/sources/build/tcc805x/gcc/tcc805x-freertos-debug/obj/ipc_ctl.o
IPC_PopOneByte                                    /home/junghyun/topst/cr5-bsp/sources/build/tcc805x/gcc/tcc805x-freertos-debug/obj/ipc_buffer.o
IPC_PushBuffer                                    /home/junghyun/topst/cr5-bsp/sources/build/tcc805x/gcc/tcc805x-freertos-debug/obj/ipc_buffer.o
                                                  /home/junghyun/topst/cr5-bsp/sources/build/tcc805x/gcc/tcc805x-freertos-debug/obj/ipc_ctl.o
IPC_PushBufferOverWrite                           /home/junghyun/topst/cr5-bsp/sources/build/tcc805x/gcc/tcc805x-freertos-debug/obj/ipc_buffer.o
                                                  /home/junghyun/topst/cr5-bsp/sources/build/tcc805x/gcc/tcc805x-freertos-debug/obj/ipc_ctl.o
IPC_PushOneByte                                   /home/junghyun/topst/cr5-bsp/sources/build/tcc805x/gcc/tcc805x-freertos-debug/obj/ipc_buffer.o
IPC_PushOneByteOverWrite                          /home/junghyun/topst/cr5-bsp/sources/build/tcc805x/gcc/tcc805x-freertos-debug/obj/ipc_buffer.o
IPC_RbufferLock                                   /home/junghyun/topst/cr5-bsp/sources/build/tcc805x/gcc/tcc805x-freertos-debug/obj/ipc_os.o
                                                  /home/junghyun/topst/cr5-bsp/sources/build/tcc805x/gcc/tcc805x-freertos-debug/obj/ipc_ctl.o
IPC_RbufferUnlock                                 /home/junghyun/topst/cr5-bsp/sources/build/tcc805x/gcc/tcc805x-freertos-debug/obj/ipc_os.o
                                                  /home/junghyun/topst/cr5-bsp/sources/build/tcc805x/gcc/tcc805x-freertos-debug/obj/ipc_ctl.o
IPC_Read                                          /home/junghyun/topst/cr5-bsp/sources/build/tcc805x/gcc/tcc805x-freertos-debug/obj/ipc_ctl.o
                                                  /home/junghyun/topst/cr5-bsp/sources/build/tcc805x/gcc/tcc805x-freertos-debug/obj/ipc_api.o
IPC_ReadClearEvent                                /home/junghyun/topst/cr5-bsp/sources/build/tcc805x/gcc/tcc805x-freertos-debug/obj/ipc_os.o
                                                  /home/junghyun/topst/cr5-bsp/sources/build/tcc805x/gcc/tcc805x-freertos-debug/obj/ipc_ctl.o
IPC_ReadLock                                      /home/junghyun/topst/cr5-bsp/sources/build/tcc805x/gcc/tcc805x-freertos-debug/obj/ipc_os.o
                                                  /home/junghyun/topst/cr5-bsp/sources/build/tcc805x/gcc/tcc805x-freertos-debug/obj/ipc_ctl.o
IPC_ReadUnlock                                    /home/junghyun/topst/cr5-bsp/sources/build/tcc805x/gcc/tcc805x-freertos-debug/obj/ipc_os.o
                                                  /home/junghyun/topst/cr5-bsp/sources/build/tcc805x/gcc/tcc805x-freertos-debug/obj/ipc_ctl.o
IPC_ReadWaitEventTimeOut                          /home/junghyun/topst/cr5-bsp/sources/build/tcc805x/gcc/tcc805x-freertos-debug/obj/ipc_os.o
                                                  /home/junghyun/topst/cr5-bsp/sources/build/tcc805x/gcc/tcc805x-freertos-debug/obj/ipc_ctl.o
IPC_ReadWakeUp                                    /home/junghyun/topst/cr5-bsp/sources/build/tcc805x/gcc/tcc805x-freertos-debug/obj/ipc_os.o
                                                  /home/junghyun/topst/cr5-bsp/sources/build/tcc805x/gcc/tcc805x-freertos-debug/obj/ipc_ctl.o
IPC_RegisterCbFunc                                /home/junghyun/topst/cr5-bsp/sources/build/tcc805x/gcc/tcc805x-freertos-debug/obj/ipc.o
                                                  /home/junghyun/topst/cr5-bsp/sources/build/tcc805x/gcc/tcc805x-freertos-debug/obj/system_monitoring.o
                                                  /home/junghyun/topst/cr5-bsp/sources/build/tcc805x/gcc/tcc805x-freertos-debug/obj/key.o
IPC_Release                                       /home/junghyun/topst/cr5-bsp/sources/build/tcc805x/gcc/tcc805x-freertos-debug/obj/ipc_ctl.o
                                                  /home/junghyun/topst/cr5-bsp/sources/build/tcc805x/gcc/tcc805x-freertos-debug/obj/ipc_api.o
IPC_RequestIrq                                    /home/junghyun/topst/cr5-bsp/sources/build/tcc805x/gcc/tcc805x-freertos-debug/obj/ipc_os.o
IPC_SendAck                                       /home/junghyun/topst/cr5-bsp/sources/build/tcc805x/gcc/tcc805x-freertos-debug/obj/ipc_cmd.o
                                                  /home/junghyun/topst/cr5-bsp/sources/build/tcc805x/gcc/tcc805x-freertos-debug/obj/ipc_ctl.o
IPC_SendClose                                     /home/junghyun/topst/cr5-bsp/sources/build/tcc805x/gcc/tcc805x-freertos-debug/obj/ipc_cmd.o
                                                  /home/junghyun/topst/cr5-bsp/sources/build/tcc805x/gcc/tcc805x-freertos-debug/obj/ipc_ctl.o
IPC_SendCtl                                       /home/junghyun/topst/cr5-bsp/sources/build/tcc805x/gcc/tcc805x-freertos-debug/obj/ipc_cmd.o
                                                  /home/junghyun/topst/cr5-bsp/sources/build/tcc805x/gcc/tcc805x-freertos-debug/obj/ipc_api.o
IPC_SendData                                      /home/junghyun/topst/cr5-bsp/sources/build/tcc805x/gcc/tcc805x-freertos-debug/obj/ipc_cmd.o
                                                  /home/junghyun/topst/cr5-bsp/sources/build/tcc805x/gcc/tcc805x-freertos-debug/obj/ipc_api.o
IPC_SendOpen                                      /home/junghyun/topst/cr5-bsp/sources/build/tcc805x/gcc/tcc805x-freertos-debug/obj/ipc_cmd.o
                                                  /home/junghyun/topst/cr5-bsp/sources/build/tcc805x/gcc/tcc805x-freertos-debug/obj/ipc_ctl.o
IPC_SendPacket                                    /home/junghyun/topst/cr5-bsp/sources/build/tcc805x/gcc/tcc805x-freertos-debug/obj/ipc.o
                                                  /home/junghyun/topst/cr5-bsp/sources/build/tcc805x/gcc/tcc805x-freertos-debug/obj/system_monitoring.o
                                                  /home/junghyun/topst/cr5-bsp/sources/build/tcc805x/gcc/tcc805x-freertos-debug/obj/key.o
IPC_SendPacketWithIPCHeader                       /home/junghyun/topst/cr5-bsp/sources/build/tcc805x/gcc/tcc805x-freertos-debug/obj/ipc_api.o
                                                  /home/junghyun/topst/cr5-bsp/sources/build/tcc805x/gcc/tcc805x-freertos-debug/obj/ipc.o
IPC_SendPing                                      /home/junghyun/topst/cr5-bsp/sources/build/tcc805x/gcc/tcc805x-freertos-debug/obj/ipc_cmd.o
                                                  /home/junghyun/topst/cr5-bsp/sources/build/tcc805x/gcc/tcc805x-freertos-debug/obj/ipc_ctl.o
IPC_SendToMainCtlCmd                              /home/junghyun/topst/cr5-bsp/sources/build/tcc805x/gcc/tcc805x-freertos-debug/obj/ipc.o
                                                  /home/junghyun/topst/cr5-bsp/sources/build/tcc805x/gcc/tcc805x-freertos-debug/obj/project_ipc.o
IPC_SendToMainCtlCmdHandler                       /home/junghyun/topst/cr5-bsp/sources/build/tcc805x/gcc/tcc805x-freertos-debug/obj/ipc_api.o
                                                  /home/junghyun/topst/cr5-bsp/sources/build/tcc805x/gcc/tcc805x-freertos-debug/obj/ipc.o
IPC_SendToMainData                                /home/junghyun/topst/cr5-bsp/sources/build/tcc805x/gcc/tcc805x-freertos-debug/obj/ipc.o
                                                  /home/junghyun/topst/cr5-bsp/sources/build/tcc805x/gcc/tcc805x-freertos-debug/obj/project_ipc.o
IPC_SendToMainDataHandler                         /home/junghyun/topst/cr5-bsp/sources/build/tcc805x/gcc/tcc805x-freertos-debug/obj/ipc_api.o
                                                  /home/junghyun/topst/cr5-bsp/sources/build/tcc805x/gcc/tcc805x-freertos-debug/obj/ipc.o
IPC_SendWrite                                     /home/junghyun/topst/cr5-bsp/sources/build/tcc805x/gcc/tcc805x-freertos-debug/obj/ipc_cmd.o
                                                  /home/junghyun/topst/cr5-bsp/sources/build/tcc805x/gcc/tcc805x-freertos-debug/obj/ipc_ctl.o
IPC_StructInit                                    /home/junghyun/topst/cr5-bsp/sources/build/tcc805x/gcc/tcc805x-freertos-debug/obj/ipc_ctl.o
                                                  /home/junghyun/topst/cr5-bsp/sources/build/tcc805x/gcc/tcc805x-freertos-debug/obj/ipc_api.o
IPC_Udelay                                        /home/junghyun/topst/cr5-bsp/sources/build/tcc805x/gcc/tcc805x-freertos-debug/obj/ipc_os.o
IPC_WbufferLock                                   /home/junghyun/topst/cr5-bsp/sources/build/tcc805x/gcc/tcc805x-freertos-debug/obj/ipc_os.o
                                                  /home/junghyun/topst/cr5-bsp/sources/build/tcc805x/gcc/tcc805x-freertos-debug/obj/ipc_ctl.o
IPC_WbufferUnlock                                 /home/junghyun/topst/cr5-bsp/sources/build/tcc805x/gcc/tcc805x-freertos-debug/obj/ipc_os.o
                                                  /home/junghyun/topst/cr5-bsp/sources/build/tcc805x/gcc/tcc805x-freertos-debug/obj/ipc_ctl.o
IPC_Write                                         /home/junghyun/topst/cr5-bsp/sources/build/tcc805x/gcc/tcc805x-freertos-debug/obj/ipc_ctl.o
                                                  /home/junghyun/topst/cr5-bsp/sources/build/tcc805x/gcc/tcc805x-freertos-debug/obj/ipc_api.o
IPC_WriteLock                                     /home/junghyun/topst/cr5-bsp/sources/build/tcc805x/gcc/tcc805x-freertos-debug/obj/ipc_os.o
                                                  /home/junghyun/topst/cr5-bsp/sources/build/tcc805x/gcc/tcc805x-freertos-debug/obj/ipc_api.o
                                                  /home/junghyun/topst/cr5-bsp/sources/build/tcc805x/gcc/tcc805x-freertos-debug/obj/ipc_ctl.o
IPC_WriteUnlock                                   /home/junghyun/topst/cr5-bsp/sources/build/tcc805x/gcc/tcc805x-freertos-debug/obj/ipc_os.o
                                                  /home/junghyun/topst/cr5-bsp/sources/build/tcc805x/gcc/tcc805x-freertos-debug/obj/ipc_api.o
                                                  /home/junghyun/topst/cr5-bsp/sources/build/tcc805x/gcc/tcc805x-freertos-debug/obj/ipc_ctl.o
KEY_AdcOpen                                       /home/junghyun/topst/cr5-bsp/sources/build/tcc805x/gcc/tcc805x-freertos-debug/obj/key_adc.o
                                                  /home/junghyun/topst/cr5-bsp/sources/build/tcc805x/gcc/tcc805x-freertos-debug/obj/key.o
KEY_AdcScan                                       /home/junghyun/topst/cr5-bsp/sources/build/tcc805x/gcc/tcc805x-freertos-debug/obj/key_adc.o
                                                  /home/junghyun/topst/cr5-bsp/sources/build/tcc805x/gcc/tcc805x-freertos-debug/obj/key.o
KEY_AppCreate                                     /home/junghyun/topst/cr5-bsp/sources/build/tcc805x/gcc/tcc805x-freertos-debug/obj/key.o
                                                  /home/junghyun/topst/cr5-bsp/sources/build/tcc805x/gcc/tcc805x-freertos-debug/obj/main.o
KEY_GpioGetRotaryValue                            /home/junghyun/topst/cr5-bsp/sources/build/tcc805x/gcc/tcc805x-freertos-debug/obj/key_gpio.o
                                                  /home/junghyun/topst/cr5-bsp/sources/build/tcc805x/gcc/tcc805x-freertos-debug/obj/key.o
KEY_GpioKeyOpen                                   /home/junghyun/topst/cr5-bsp/sources/build/tcc805x/gcc/tcc805x-freertos-debug/obj/key_gpio.o
                                                  /home/junghyun/topst/cr5-bsp/sources/build/tcc805x/gcc/tcc805x-freertos-debug/obj/key.o
KEY_I2cOpen                                       /home/junghyun/topst/cr5-bsp/sources/build/tcc805x/gcc/tcc805x-freertos-debug/obj/key_i2c.o
                                                  /home/junghyun/topst/cr5-bsp/sources/build/tcc805x/gcc/tcc805x-freertos-debug/obj/key.o
KEY_I2cRead                                       /home/junghyun/topst/cr5-bsp/sources/build/tcc805x/gcc/tcc805x-freertos-debug/obj/key_i2c.o
KEY_I2cScan                                       /home/junghyun/topst/cr5-bsp/sources/build/tcc805x/gcc/tcc805x-freertos-debug/obj/key_i2c.o
                                                  /home/junghyun/topst/cr5-bsp/sources/build/tcc805x/gcc/tcc805x-freertos-debug/obj/key.o
KEY_I2cWrite                                      /home/junghyun/topst/cr5-bsp/sources/build/tcc805x/gcc/tcc805x-freertos-debug/obj/key_i2c.o
LIN_Init                                          /home/junghyun/topst/cr5-bsp/sources/build/tcc805x/gcc/tcc805x-freertos-debug/obj/lin.o
                                                  /home/junghyun/topst/cr5-bsp/sources/build/tcc805x/gcc/tcc805x-freertos-debug/obj/lin_test.o
LIN_ReadData                                      /home/junghyun/topst/cr5-bsp/sources/build/tcc805x/gcc/tcc805x-freertos-debug/obj/lin.o
                                                  /home/junghyun/topst/cr5-bsp/sources/build/tcc805x/gcc/tcc805x-freertos-debug/obj/lin_test.o
LIN_SampleTest                                    /home/junghyun/topst/cr5-bsp/sources/build/tcc805x/gcc/tcc805x-freertos-debug/obj/lin_test.o
                                                  /home/junghyun/topst/cr5-bsp/sources/build/tcc805x/gcc/tcc805x-freertos-debug/obj/console.o
LIN_SendData                                      /home/junghyun/topst/cr5-bsp/sources/build/tcc805x/gcc/tcc805x-freertos-debug/obj/lin.o
                                                  /home/junghyun/topst/cr5-bsp/sources/build/tcc805x/gcc/tcc805x-freertos-debug/obj/lin_test.o
LIN_TestUsage                                     /home/junghyun/topst/cr5-bsp/sources/build/tcc805x/gcc/tcc805x-freertos-debug/obj/lin_test.o
LIN_TransceiverWakeup                             /home/junghyun/topst/cr5-bsp/sources/build/tcc805x/gcc/tcc805x-freertos-debug/obj/lin.o
MBOX_DevInit                                      /home/junghyun/topst/cr5-bsp/sources/build/tcc805x/gcc/tcc805x-freertos-debug/obj/mbox_dev.o
                                                  /home/junghyun/topst/cr5-bsp/sources/build/tcc805x/gcc/tcc805x-freertos-debug/obj/mbox.o
MBOX_DevIoctl                                     /home/junghyun/topst/cr5-bsp/sources/build/tcc805x/gcc/tcc805x-freertos-debug/obj/mbox_dev.o
                                                  /home/junghyun/topst/cr5-bsp/sources/build/tcc805x/gcc/tcc805x-freertos-debug/obj/ipc_cmd.o
MBOX_DevOpen                                      /home/junghyun/topst/cr5-bsp/sources/build/tcc805x/gcc/tcc805x-freertos-debug/obj/mbox_dev.o
                                                  /home/junghyun/topst/cr5-bsp/sources/build/tcc805x/gcc/tcc805x-freertos-debug/obj/pmio_dev.o
                                                  /home/junghyun/topst/cr5-bsp/sources/build/tcc805x/gcc/tcc805x-freertos-debug/obj/hsm_manager.o
                                                  /home/junghyun/topst/cr5-bsp/sources/build/tcc805x/gcc/tcc805x-freertos-debug/obj/ipc_ctl.o
                                                  /home/junghyun/topst/cr5-bsp/sources/build/tcc805x/gcc/tcc805x-freertos-debug/obj/fwug.o
MBOX_DevRecv                                      /home/junghyun/topst/cr5-bsp/sources/build/tcc805x/gcc/tcc805x-freertos-debug/obj/mbox_dev.o
                                                  /home/junghyun/topst/cr5-bsp/sources/build/tcc805x/gcc/tcc805x-freertos-debug/obj/ipc_ctl.o
                                                  /home/junghyun/topst/cr5-bsp/sources/build/tcc805x/gcc/tcc805x-freertos-debug/obj/fwug.o
MBOX_DevRecvCmd                                   /home/junghyun/topst/cr5-bsp/sources/build/tcc805x/gcc/tcc805x-freertos-debug/obj/mbox_dev.o
                                                  /home/junghyun/topst/cr5-bsp/sources/build/tcc805x/gcc/tcc805x-freertos-debug/obj/pmio_dev.o
                                                  /home/junghyun/topst/cr5-bsp/sources/build/tcc805x/gcc/tcc805x-freertos-debug/obj/bootctrl.o
MBOX_DevRecvData                                  /home/junghyun/topst/cr5-bsp/sources/build/tcc805x/gcc/tcc805x-freertos-debug/obj/mbox_dev.o
MBOX_DevRecvSss                                   /home/junghyun/topst/cr5-bsp/sources/build/tcc805x/gcc/tcc805x-freertos-debug/obj/mbox_dev.o
                                                  /home/junghyun/topst/cr5-bsp/sources/build/tcc805x/gcc/tcc805x-freertos-debug/obj/hsm_manager.o
MBOX_DevSend                                      /home/junghyun/topst/cr5-bsp/sources/build/tcc805x/gcc/tcc805x-freertos-debug/obj/mbox_dev.o
                                                  /home/junghyun/topst/cr5-bsp/sources/build/tcc805x/gcc/tcc805x-freertos-debug/obj/ipc_cmd.o
MBOX_DevSendCmd                                   /home/junghyun/topst/cr5-bsp/sources/build/tcc805x/gcc/tcc805x-freertos-debug/obj/mbox_dev.o
                                                  /home/junghyun/topst/cr5-bsp/sources/build/tcc805x/gcc/tcc805x-freertos-debug/obj/pmio_dev.o
                                                  /home/junghyun/topst/cr5-bsp/sources/build/tcc805x/gcc/tcc805x-freertos-debug/obj/ipc_cmd.o
                                                  /home/junghyun/topst/cr5-bsp/sources/build/tcc805x/gcc/tcc805x-freertos-debug/obj/bootctrl.o
MBOX_DevSendData                                  /home/junghyun/topst/cr5-bsp/sources/build/tcc805x/gcc/tcc805x-freertos-debug/obj/mbox_dev.o
MBOX_DevSendSss                                   /home/junghyun/topst/cr5-bsp/sources/build/tcc805x/gcc/tcc805x-freertos-debug/obj/mbox_dev.o
                                                  /home/junghyun/topst/cr5-bsp/sources/build/tcc805x/gcc/tcc805x-freertos-debug/obj/hsm_manager.o
MBOX_Init                                         /home/junghyun/topst/cr5-bsp/sources/build/tcc805x/gcc/tcc805x-freertos-debug/obj/mbox.o
                                                  /home/junghyun/topst/cr5-bsp/sources/build/tcc805x/gcc/tcc805x-freertos-debug/obj/bsp.o
MBOX_PhyBitClearCtrl                              /home/junghyun/topst/cr5-bsp/sources/build/tcc805x/gcc/tcc805x-freertos-debug/obj/mbox_phy.o
                                                  /home/junghyun/topst/cr5-bsp/sources/build/tcc805x/gcc/tcc805x-freertos-debug/obj/mbox_dev.o
MBOX_PhyBitSetCtrl                                /home/junghyun/topst/cr5-bsp/sources/build/tcc805x/gcc/tcc805x-freertos-debug/obj/mbox_phy.o
                                                  /home/junghyun/topst/cr5-bsp/sources/build/tcc805x/gcc/tcc805x-freertos-debug/obj/mbox_dev.o
MBOX_PhyCountMcmd                                 /home/junghyun/topst/cr5-bsp/sources/build/tcc805x/gcc/tcc805x-freertos-debug/obj/mbox_phy.o
                                                  /home/junghyun/topst/cr5-bsp/sources/build/tcc805x/gcc/tcc805x-freertos-debug/obj/mbox_dev.o
MBOX_PhyCountMdata                                /home/junghyun/topst/cr5-bsp/sources/build/tcc805x/gcc/tcc805x-freertos-debug/obj/mbox_phy.o
                                                  /home/junghyun/topst/cr5-bsp/sources/build/tcc805x/gcc/tcc805x-freertos-debug/obj/mbox_dev.o
MBOX_PhyCountScmd                                 /home/junghyun/topst/cr5-bsp/sources/build/tcc805x/gcc/tcc805x-freertos-debug/obj/mbox_phy.o
                                                  /home/junghyun/topst/cr5-bsp/sources/build/tcc805x/gcc/tcc805x-freertos-debug/obj/mbox_dev.o
MBOX_PhyCountSdata                                /home/junghyun/topst/cr5-bsp/sources/build/tcc805x/gcc/tcc805x-freertos-debug/obj/mbox_phy.o
                                                  /home/junghyun/topst/cr5-bsp/sources/build/tcc805x/gcc/tcc805x-freertos-debug/obj/mbox_dev.o
MBOX_PhyEmptyMcmd                                 /home/junghyun/topst/cr5-bsp/sources/build/tcc805x/gcc/tcc805x-freertos-debug/obj/mbox_phy.o
                                                  /home/junghyun/topst/cr5-bsp/sources/build/tcc805x/gcc/tcc805x-freertos-debug/obj/mbox_dev.o
MBOX_PhyEmptyMdata                                /home/junghyun/topst/cr5-bsp/sources/build/tcc805x/gcc/tcc805x-freertos-debug/obj/mbox_phy.o
                                                  /home/junghyun/topst/cr5-bsp/sources/build/tcc805x/gcc/tcc805x-freertos-debug/obj/mbox_dev.o
MBOX_PhyEmptyScmd                                 /home/junghyun/topst/cr5-bsp/sources/build/tcc805x/gcc/tcc805x-freertos-debug/obj/mbox_phy.o
                                                  /home/junghyun/topst/cr5-bsp/sources/build/tcc805x/gcc/tcc805x-freertos-debug/obj/mbox_dev.o
MBOX_PhyEmptySdata                                /home/junghyun/topst/cr5-bsp/sources/build/tcc805x/gcc/tcc805x-freertos-debug/obj/mbox_phy.o
                                                  /home/junghyun/topst/cr5-bsp/sources/build/tcc805x/gcc/tcc805x-freertos-debug/obj/mbox_dev.o
MBOX_PhyFullMcmd                                  /home/junghyun/topst/cr5-bsp/sources/build/tcc805x/gcc/tcc805x-freertos-debug/obj/mbox_phy.o
                                                  /home/junghyun/topst/cr5-bsp/sources/build/tcc805x/gcc/tcc805x-freertos-debug/obj/mbox_dev.o
MBOX_PhyFullMdata                                 /home/junghyun/topst/cr5-bsp/sources/build/tcc805x/gcc/tcc805x-freertos-debug/obj/mbox_phy.o
                                                  /home/junghyun/topst/cr5-bsp/sources/build/tcc805x/gcc/tcc805x-freertos-debug/obj/mbox_dev.o
MBOX_PhyFullScmd                                  /home/junghyun/topst/cr5-bsp/sources/build/tcc805x/gcc/tcc805x-freertos-debug/obj/mbox_phy.o
                                                  /home/junghyun/topst/cr5-bsp/sources/build/tcc805x/gcc/tcc805x-freertos-debug/obj/mbox_dev.o
MBOX_PhyFullSdata                                 /home/junghyun/topst/cr5-bsp/sources/build/tcc805x/gcc/tcc805x-freertos-debug/obj/mbox_phy.o
                                                  /home/junghyun/topst/cr5-bsp/sources/build/tcc805x/gcc/tcc805x-freertos-debug/obj/mbox_dev.o
MBOX_PhyGetOppTmnSts                              /home/junghyun/topst/cr5-bsp/sources/build/tcc805x/gcc/tcc805x-freertos-debug/obj/mbox_phy.o
                                                  /home/junghyun/topst/cr5-bsp/sources/build/tcc805x/gcc/tcc805x-freertos-debug/obj/mbox_dev.o
MBOX_PhyGetOwnTmnSts                              /home/junghyun/topst/cr5-bsp/sources/build/tcc805x/gcc/tcc805x-freertos-debug/obj/mbox_phy.o
                                                  /home/junghyun/topst/cr5-bsp/sources/build/tcc805x/gcc/tcc805x-freertos-debug/obj/mbox_dev.o
MBOX_PhyIsFlushedCmd                              /home/junghyun/topst/cr5-bsp/sources/build/tcc805x/gcc/tcc805x-freertos-debug/obj/mbox_phy.o
                                                  /home/junghyun/topst/cr5-bsp/sources/build/tcc805x/gcc/tcc805x-freertos-debug/obj/mbox_dev.o
MBOX_PhyIsFlushedData                             /home/junghyun/topst/cr5-bsp/sources/build/tcc805x/gcc/tcc805x-freertos-debug/obj/mbox_phy.o
                                                  /home/junghyun/topst/cr5-bsp/sources/build/tcc805x/gcc/tcc805x-freertos-debug/obj/mbox_dev.o
MBOX_PhyIsIenSet                                  /home/junghyun/topst/cr5-bsp/sources/build/tcc805x/gcc/tcc805x-freertos-debug/obj/mbox_phy.o
                                                  /home/junghyun/topst/cr5-bsp/sources/build/tcc805x/gcc/tcc805x-freertos-debug/obj/mbox_dev.o
MBOX_PhyIsIlevelSet                               /home/junghyun/topst/cr5-bsp/sources/build/tcc805x/gcc/tcc805x-freertos-debug/obj/mbox_phy.o
                                                  /home/junghyun/topst/cr5-bsp/sources/build/tcc805x/gcc/tcc805x-freertos-debug/obj/mbox_dev.o
MBOX_PhyIsOenSet                                  /home/junghyun/topst/cr5-bsp/sources/build/tcc805x/gcc/tcc805x-freertos-debug/obj/mbox_phy.o
                                                  /home/junghyun/topst/cr5-bsp/sources/build/tcc805x/gcc/tcc805x-freertos-debug/obj/mbox_dev.o
MBOX_PhyReadCmd                                   /home/junghyun/topst/cr5-bsp/sources/build/tcc805x/gcc/tcc805x-freertos-debug/obj/mbox_phy.o
                                                  /home/junghyun/topst/cr5-bsp/sources/build/tcc805x/gcc/tcc805x-freertos-debug/obj/mbox_dev.o
MBOX_PhyReadData                                  /home/junghyun/topst/cr5-bsp/sources/build/tcc805x/gcc/tcc805x-freertos-debug/obj/mbox_phy.o
                                                  /home/junghyun/topst/cr5-bsp/sources/build/tcc805x/gcc/tcc805x-freertos-debug/obj/mbox_dev.o
MBOX_PhyReady                                     /home/junghyun/topst/cr5-bsp/sources/build/tcc805x/gcc/tcc805x-freertos-debug/obj/mbox_phy.o
                                                  /home/junghyun/topst/cr5-bsp/sources/build/tcc805x/gcc/tcc805x-freertos-debug/obj/mbox_dev.o
MBOX_PhySetOwnTmnSts                              /home/junghyun/topst/cr5-bsp/sources/build/tcc805x/gcc/tcc805x-freertos-debug/obj/mbox_phy.o
                                                  /home/junghyun/topst/cr5-bsp/sources/build/tcc805x/gcc/tcc805x-freertos-debug/obj/mbox_dev.o
MBOX_PhyWriteCmd                                  /home/junghyun/topst/cr5-bsp/sources/build/tcc805x/gcc/tcc805x-freertos-debug/obj/mbox_phy.o
                                                  /home/junghyun/topst/cr5-bsp/sources/build/tcc805x/gcc/tcc805x-freertos-debug/obj/mbox_dev.o
MBOX_PhyWriteData                                 /home/junghyun/topst/cr5-bsp/sources/build/tcc805x/gcc/tcc805x-freertos-debug/obj/mbox_phy.o
                                                  /home/junghyun/topst/cr5-bsp/sources/build/tcc805x/gcc/tcc805x-freertos-debug/obj/mbox_dev.o
MIDF_ConfigSoftFaultCheckSafetyMechanism          /home/junghyun/topst/cr5-bsp/sources/build/tcc805x/gcc/tcc805x-freertos-debug/obj/midf.o
MIDF_FilterInitialize                             /home/junghyun/topst/cr5-bsp/sources/build/tcc805x/gcc/tcc805x-freertos-debug/obj/midf.o
                                                  /home/junghyun/topst/cr5-bsp/sources/build/tcc805x/gcc/tcc805x-freertos-debug/obj/console.o
MIDF_RegisterFilterRegion                         /home/junghyun/topst/cr5-bsp/sources/build/tcc805x/gcc/tcc805x-freertos-debug/obj/midf.o
                                                  /home/junghyun/topst/cr5-bsp/sources/build/tcc805x/gcc/tcc805x-freertos-debug/obj/console.o
MIDF_RegisterWriteLockSafetyMechanism             /home/junghyun/topst/cr5-bsp/sources/build/tcc805x/gcc/tcc805x-freertos-debug/obj/midf.o
MIDF_UnregisterFilterRegion                       /home/junghyun/topst/cr5-bsp/sources/build/tcc805x/gcc/tcc805x-freertos-debug/obj/midf.o
                                                  /home/junghyun/topst/cr5-bsp/sources/build/tcc805x/gcc/tcc805x-freertos-debug/obj/console.o
MPTool_CreateApp                                  /home/junghyun/topst/cr5-bsp/sources/build/tcc805x/gcc/tcc805x-freertos-debug/obj/mptool.o
                                                  /home/junghyun/topst/cr5-bsp/sources/build/tcc805x/gcc/tcc805x-freertos-debug/obj/main.o
MPU_Disable                                       /home/junghyun/topst/cr5-bsp/sources/build/tcc805x/gcc/tcc805x-freertos-debug/obj/mpu.o
                                                  /home/junghyun/topst/cr5-bsp/sources/build/tcc805x/gcc/tcc805x-freertos-debug/obj/fwug.o
MPU_Enable                                        /home/junghyun/topst/cr5-bsp/sources/build/tcc805x/gcc/tcc805x-freertos-debug/obj/mpu.o
                                                  /home/junghyun/topst/cr5-bsp/sources/build/tcc805x/gcc/tcc805x-freertos-debug/obj/fwug.o
MPU_GetDMABaseAddress                             /home/junghyun/topst/cr5-bsp/sources/build/tcc805x/gcc/tcc805x-freertos-debug/obj/mpu.o
                                                  /home/junghyun/topst/cr5-bsp/sources/build/tcc805x/gcc/tcc805x-freertos-debug/obj/uart.o
                                                  /home/junghyun/topst/cr5-bsp/sources/build/tcc805x/gcc/tcc805x-freertos-debug/obj/gpsb_test.o
MPU_Init                                          /home/junghyun/topst/cr5-bsp/sources/build/tcc805x/gcc/tcc805x-freertos-debug/obj/mpu.o
                                                  /home/junghyun/topst/cr5-bsp/sources/build/tcc805x/gcc/tcc805x-freertos-debug/obj/startup.o
MPU_SetRegion                                     /home/junghyun/topst/cr5-bsp/sources/build/tcc805x/gcc/tcc805x-freertos-debug/obj/mpu.o
                                                  /home/junghyun/topst/cr5-bsp/sources/build/tcc805x/gcc/tcc805x-freertos-debug/obj/fwug.o
PDM_Deinit                                        /home/junghyun/topst/cr5-bsp/sources/build/tcc805x/gcc/tcc805x-freertos-debug/obj/pdm.o
PDM_Disable                                       /home/junghyun/topst/cr5-bsp/sources/build/tcc805x/gcc/tcc805x-freertos-debug/obj/pdm.o
                                                  /home/junghyun/topst/cr5-bsp/sources/build/tcc805x/gcc/tcc805x-freertos-debug/obj/pdm_test.o
PDM_DisableClock                                  /home/junghyun/topst/cr5-bsp/sources/build/tcc805x/gcc/tcc805x-freertos-debug/obj/pdm.o
PDM_Enable                                        /home/junghyun/topst/cr5-bsp/sources/build/tcc805x/gcc/tcc805x-freertos-debug/obj/pdm.o
                                                  /home/junghyun/topst/cr5-bsp/sources/build/tcc805x/gcc/tcc805x-freertos-debug/obj/pdm_test.o
PDM_EnableClock                                   /home/junghyun/topst/cr5-bsp/sources/build/tcc805x/gcc/tcc805x-freertos-debug/obj/pdm.o
PDM_GetChannelStatus                              /home/junghyun/topst/cr5-bsp/sources/build/tcc805x/gcc/tcc805x-freertos-debug/obj/pdm.o
PDM_Init                                          /home/junghyun/topst/cr5-bsp/sources/build/tcc805x/gcc/tcc805x-freertos-debug/obj/pdm.o
                                                  /home/junghyun/topst/cr5-bsp/sources/build/tcc805x/gcc/tcc805x-freertos-debug/obj/pdm_test.o
PDM_SelectTestCase                                /home/junghyun/topst/cr5-bsp/sources/build/tcc805x/gcc/tcc805x-freertos-debug/obj/pdm_test.o
                                                  /home/junghyun/topst/cr5-bsp/sources/build/tcc805x/gcc/tcc805x-freertos-debug/obj/console.o
PDM_SetConfig                                     /home/junghyun/topst/cr5-bsp/sources/build/tcc805x/gcc/tcc805x-freertos-debug/obj/pdm.o
                                                  /home/junghyun/topst/cr5-bsp/sources/build/tcc805x/gcc/tcc805x-freertos-debug/obj/pdm_test.o
PMIO_APBootOk                                     /home/junghyun/topst/cr5-bsp/sources/build/tcc805x/gcc/tcc805x-freertos-debug/obj/pmio_dev.o
                                                  /home/junghyun/topst/cr5-bsp/sources/build/tcc805x/gcc/tcc805x-freertos-debug/obj/bootctrl.o
PMIO_ClearBackupRAM                               /home/junghyun/topst/cr5-bsp/sources/build/tcc805x/gcc/tcc805x-freertos-debug/obj/pmio_dev.o
PMIO_DebugPrintPowerStatus                        /home/junghyun/topst/cr5-bsp/sources/build/tcc805x/gcc/tcc805x-freertos-debug/obj/pmio_dev.o
                                                  /home/junghyun/topst/cr5-bsp/sources/build/tcc805x/gcc/tcc805x-freertos-debug/obj/pmio_test.o
PMIO_EarlyWakeUp                                  /home/junghyun/topst/cr5-bsp/sources/build/tcc805x/gcc/tcc805x-freertos-debug/obj/pmio_dev.o
                                                  /home/junghyun/topst/cr5-bsp/sources/build/tcc805x/gcc/tcc805x-freertos-debug/obj/startup.o
PMIO_ForceSTRModeTest                             /home/junghyun/topst/cr5-bsp/sources/build/tcc805x/gcc/tcc805x-freertos-debug/obj/pmio_dev.o
                                                  /home/junghyun/topst/cr5-bsp/sources/build/tcc805x/gcc/tcc805x-freertos-debug/obj/pmio_test.o
PMIO_GetBackupRam                                 /home/junghyun/topst/cr5-bsp/sources/build/tcc805x/gcc/tcc805x-freertos-debug/obj/pmio_dev.o
PMIO_GetBootReason                                /home/junghyun/topst/cr5-bsp/sources/build/tcc805x/gcc/tcc805x-freertos-debug/obj/pmio_dev.o
PMIO_GetWdtReset                                  /home/junghyun/topst/cr5-bsp/sources/build/tcc805x/gcc/tcc805x-freertos-debug/obj/pmio_dev.o
PMIO_Init                                         /home/junghyun/topst/cr5-bsp/sources/build/tcc805x/gcc/tcc805x-freertos-debug/obj/pmio_dev.o
                                                  /home/junghyun/topst/cr5-bsp/sources/build/tcc805x/gcc/tcc805x-freertos-debug/obj/bsp.o
PMIO_PowerDown                                    /home/junghyun/topst/cr5-bsp/sources/build/tcc805x/gcc/tcc805x-freertos-debug/obj/pmio_dev.o
PMIO_SetBackupRam                                 /home/junghyun/topst/cr5-bsp/sources/build/tcc805x/gcc/tcc805x-freertos-debug/obj/pmio_dev.o
PMIO_SetGPK                                       /home/junghyun/topst/cr5-bsp/sources/build/tcc805x/gcc/tcc805x-freertos-debug/obj/pmio_dev.o
                                                  /home/junghyun/topst/cr5-bsp/sources/build/tcc805x/gcc/tcc805x-freertos-debug/obj/can_porting.o
                                                  /home/junghyun/topst/cr5-bsp/sources/build/tcc805x/gcc/tcc805x-freertos-debug/obj/lin.o
                                                  /home/junghyun/topst/cr5-bsp/sources/build/tcc805x/gcc/tcc805x-freertos-debug/obj/key_adc.o
PMIO_TEST_GetByAddress                            /home/junghyun/topst/cr5-bsp/sources/build/tcc805x/gcc/tcc805x-freertos-debug/obj/pmio_test.o
PMIO_TEST_GetByName                               /home/junghyun/topst/cr5-bsp/sources/build/tcc805x/gcc/tcc805x-freertos-debug/obj/pmio_test.o
                                                  /home/junghyun/topst/cr5-bsp/sources/build/tcc805x/gcc/tcc805x-freertos-debug/obj/console.o
PMIO_TEST_PrintStatus                             /home/junghyun/topst/cr5-bsp/sources/build/tcc805x/gcc/tcc805x-freertos-debug/obj/pmio_test.o
                                                  /home/junghyun/topst/cr5-bsp/sources/build/tcc805x/gcc/tcc805x-freertos-debug/obj/console.o
PMIO_TEST_Run                                     /home/junghyun/topst/cr5-bsp/sources/build/tcc805x/gcc/tcc805x-freertos-debug/obj/pmio_test.o
                                                  /home/junghyun/topst/cr5-bsp/sources/build/tcc805x/gcc/tcc805x-freertos-debug/obj/console.o
PMIO_TEST_SetByAddress                            /home/junghyun/topst/cr5-bsp/sources/build/tcc805x/gcc/tcc805x-freertos-debug/obj/pmio_test.o
PMIO_TEST_SetByName                               /home/junghyun/topst/cr5-bsp/sources/build/tcc805x/gcc/tcc805x-freertos-debug/obj/pmio_test.o
                                                  /home/junghyun/topst/cr5-bsp/sources/build/tcc805x/gcc/tcc805x-freertos-debug/obj/console.o
PMU_ResetAPSystemReboot                           /home/junghyun/topst/cr5-bsp/sources/build/tcc805x/gcc/tcc805x-freertos-debug/obj/pmu_reset.o
                                                  /home/junghyun/topst/cr5-bsp/sources/build/tcc805x/gcc/tcc805x-freertos-debug/obj/reset_demo.o
PMU_ResetColdReset                                /home/junghyun/topst/cr5-bsp/sources/build/tcc805x/gcc/tcc805x-freertos-debug/obj/pmu_reset.o
                                                  /home/junghyun/topst/cr5-bsp/sources/build/tcc805x/gcc/tcc805x-freertos-debug/obj/reset_demo.o
PMU_ResetPreCfg                                   /home/junghyun/topst/cr5-bsp/sources/build/tcc805x/gcc/tcc805x-freertos-debug/obj/pmu_reset.o
                                                  /home/junghyun/topst/cr5-bsp/sources/build/tcc805x/gcc/tcc805x-freertos-debug/obj/bsp.o
PMU_ResetSCWDTInit                                /home/junghyun/topst/cr5-bsp/sources/build/tcc805x/gcc/tcc805x-freertos-debug/obj/pmu_reset.o
                                                  /home/junghyun/topst/cr5-bsp/sources/build/tcc805x/gcc/tcc805x-freertos-debug/obj/bsp.o
PMU_ResetSDMRstMskCfg                             /home/junghyun/topst/cr5-bsp/sources/build/tcc805x/gcc/tcc805x-freertos-debug/obj/pmu_reset.o
                                                  /home/junghyun/topst/cr5-bsp/sources/build/tcc805x/gcc/tcc805x-freertos-debug/obj/sdm.o
PMU_ResetTRVCRstMskCfg                            /home/junghyun/topst/cr5-bsp/sources/build/tcc805x/gcc/tcc805x-freertos-debug/obj/pmu_reset.o
PMU_ResetTest                                     /home/junghyun/topst/cr5-bsp/sources/build/tcc805x/gcc/tcc805x-freertos-debug/obj/reset_demo.o
                                                  /home/junghyun/topst/cr5-bsp/sources/build/tcc805x/gcc/tcc805x-freertos-debug/obj/console.o
RxBufferFIFO0InfoPar                              /home/junghyun/topst/cr5-bsp/sources/build/tcc805x/gcc/tcc805x-freertos-debug/obj/can_par.o
                                                  /home/junghyun/topst/cr5-bsp/sources/build/tcc805x/gcc/tcc805x-freertos-debug/obj/can_drv.o
RxBufferFIFO1InfoPar                              /home/junghyun/topst/cr5-bsp/sources/build/tcc805x/gcc/tcc805x-freertos-debug/obj/can_par.o
                                                  /home/junghyun/topst/cr5-bsp/sources/build/tcc805x/gcc/tcc805x-freertos-debug/obj/can_drv.o
RxBufferInfoPar                                   /home/junghyun/topst/cr5-bsp/sources/build/tcc805x/gcc/tcc805x-freertos-debug/obj/can_par.o
                                                  /home/junghyun/topst/cr5-bsp/sources/build/tcc805x/gcc/tcc805x-freertos-debug/obj/can_drv.o
SAL_Init                                          /home/junghyun/topst/cr5-bsp/sources/build/tcc805x/gcc/tcc805x-freertos-debug/obj/sal_freertos_impl.o
                                                  /home/junghyun/topst/cr5-bsp/sources/build/tcc805x/gcc/tcc805x-freertos-debug/obj/main.o
SAL_RegisterFunction                              /home/junghyun/topst/cr5-bsp/sources/build/tcc805x/gcc/tcc805x-freertos-debug/obj/sal_api.o
                                                  /home/junghyun/topst/cr5-bsp/sources/build/tcc805x/gcc/tcc805x-freertos-debug/obj/sal_freertos_impl.o
SDM_Init                                          /home/junghyun/topst/cr5-bsp/sources/build/tcc805x/gcc/tcc805x-freertos-debug/obj/sdm.o
                                                  /home/junghyun/topst/cr5-bsp/sources/build/tcc805x/gcc/tcc805x-freertos-debug/obj/main.o
SDM_ReadReg                                       /home/junghyun/topst/cr5-bsp/sources/build/tcc805x/gcc/tcc805x-freertos-debug/obj/sdm.o
                                                  /home/junghyun/topst/cr5-bsp/sources/build/tcc805x/gcc/tcc805x-freertos-debug/obj/console.o
SDM_WriteReg                                      /home/junghyun/topst/cr5-bsp/sources/build/tcc805x/gcc/tcc805x-freertos-debug/obj/sdm.o
                                                  /home/junghyun/topst/cr5-bsp/sources/build/tcc805x/gcc/tcc805x-freertos-debug/obj/console.o
SM_CreateAppTask                                  /home/junghyun/topst/cr5-bsp/sources/build/tcc805x/gcc/tcc805x-freertos-debug/obj/system_monitoring.o
                                                  /home/junghyun/topst/cr5-bsp/sources/build/tcc805x/gcc/tcc805x-freertos-debug/obj/main.o
StandardIDFilterPar                               /home/junghyun/topst/cr5-bsp/sources/build/tcc805x/gcc/tcc805x-freertos-debug/obj/can_par.o
                                                  /home/junghyun/topst/cr5-bsp/sources/build/tcc805x/gcc/tcc805x-freertos-debug/obj/can_drv.o
TIMER_Disable                                     /home/junghyun/topst/cr5-bsp/sources/build/tcc805x/gcc/tcc805x-freertos-debug/obj/timer.o
                                                  /home/junghyun/topst/cr5-bsp/sources/build/tcc805x/gcc/tcc805x-freertos-debug/obj/pmio_dev.o
                                                  /home/junghyun/topst/cr5-bsp/sources/build/tcc805x/gcc/tcc805x-freertos-debug/obj/timer_test.o
TIMER_Enable                                      /home/junghyun/topst/cr5-bsp/sources/build/tcc805x/gcc/tcc805x-freertos-debug/obj/timer.o
                                                  /home/junghyun/topst/cr5-bsp/sources/build/tcc805x/gcc/tcc805x-freertos-debug/obj/port.o
                                                  /home/junghyun/topst/cr5-bsp/sources/build/tcc805x/gcc/tcc805x-freertos-debug/obj/pmio_dev.o
                                                  /home/junghyun/topst/cr5-bsp/sources/build/tcc805x/gcc/tcc805x-freertos-debug/obj/wdt_test.o
TIMER_EnableWithCfg                               /home/junghyun/topst/cr5-bsp/sources/build/tcc805x/gcc/tcc805x-freertos-debug/obj/timer.o
                                                  /home/junghyun/topst/cr5-bsp/sources/build/tcc805x/gcc/tcc805x-freertos-debug/obj/timer_test.o
TIMER_EnableWithMode                              /home/junghyun/topst/cr5-bsp/sources/build/tcc805x/gcc/tcc805x-freertos-debug/obj/timer.o
                                                  /home/junghyun/topst/cr5-bsp/sources/build/tcc805x/gcc/tcc805x-freertos-debug/obj/wdt_test.o
                                                  /home/junghyun/topst/cr5-bsp/sources/build/tcc805x/gcc/tcc805x-freertos-debug/obj/timer_test.o
TIMER_Init                                        /home/junghyun/topst/cr5-bsp/sources/build/tcc805x/gcc/tcc805x-freertos-debug/obj/timer.o
                                                  /home/junghyun/topst/cr5-bsp/sources/build/tcc805x/gcc/tcc805x-freertos-debug/obj/bsp.o
TIMER_InterruptClear                              /home/junghyun/topst/cr5-bsp/sources/build/tcc805x/gcc/tcc805x-freertos-debug/obj/timer.o
                                                  /home/junghyun/topst/cr5-bsp/sources/build/tcc805x/gcc/tcc805x-freertos-debug/obj/port.o
TIMER_StartTimerTest                              /home/junghyun/topst/cr5-bsp/sources/build/tcc805x/gcc/tcc805x-freertos-debug/obj/timer_test.o
                                                  /home/junghyun/topst/cr5-bsp/sources/build/tcc805x/gcc/tcc805x-freertos-debug/obj/console.o
TxBufferInfoPar                                   /home/junghyun/topst/cr5-bsp/sources/build/tcc805x/gcc/tcc805x-freertos-debug/obj/can_par.o
                                                  /home/junghyun/topst/cr5-bsp/sources/build/tcc805x/gcc/tcc805x-freertos-debug/obj/can_drv.o
UART_Close                                        /home/junghyun/topst/cr5-bsp/sources/build/tcc805x/gcc/tcc805x-freertos-debug/obj/uart.o
UART_GetChar                                      /home/junghyun/topst/cr5-bsp/sources/build/tcc805x/gcc/tcc805x-freertos-debug/obj/uart.o
                                                  /home/junghyun/topst/cr5-bsp/sources/build/tcc805x/gcc/tcc805x-freertos-debug/obj/console.o
UART_GetData                                      /home/junghyun/topst/cr5-bsp/sources/build/tcc805x/gcc/tcc805x-freertos-debug/obj/uart.o
                                                  /home/junghyun/topst/cr5-bsp/sources/build/tcc805x/gcc/tcc805x-freertos-debug/obj/lin.o
UART_GetRawInterruptStatusReg                     /home/junghyun/topst/cr5-bsp/sources/build/tcc805x/gcc/tcc805x-freertos-debug/obj/uart.o
UART_GetReceiveStatusReg                          /home/junghyun/topst/cr5-bsp/sources/build/tcc805x/gcc/tcc805x-freertos-debug/obj/uart.o
UART_ISR                                          /home/junghyun/topst/cr5-bsp/sources/build/tcc805x/gcc/tcc805x-freertos-debug/obj/uart.o
UART_Init                                         /home/junghyun/topst/cr5-bsp/sources/build/tcc805x/gcc/tcc805x-freertos-debug/obj/uart.o
                                                  /home/junghyun/topst/cr5-bsp/sources/build/tcc805x/gcc/tcc805x-freertos-debug/obj/bsp.o
UART_Open                                         /home/junghyun/topst/cr5-bsp/sources/build/tcc805x/gcc/tcc805x-freertos-debug/obj/uart.o
                                                  /home/junghyun/topst/cr5-bsp/sources/build/tcc805x/gcc/tcc805x-freertos-debug/obj/lin.o
UART_PutChar                                      /home/junghyun/topst/cr5-bsp/sources/build/tcc805x/gcc/tcc805x-freertos-debug/obj/uart.o
                                                  /home/junghyun/topst/cr5-bsp/sources/build/tcc805x/gcc/tcc805x-freertos-debug/obj/debug.o
                                                  /home/junghyun/topst/cr5-bsp/sources/build/tcc805x/gcc/tcc805x-freertos-debug/obj/lin.o
UART_Read                                         /home/junghyun/topst/cr5-bsp/sources/build/tcc805x/gcc/tcc805x-freertos-debug/obj/uart.o
UART_SetErrorClearReg                             /home/junghyun/topst/cr5-bsp/sources/build/tcc805x/gcc/tcc805x-freertos-debug/obj/uart.o
UART_SetInterruptClearReg                         /home/junghyun/topst/cr5-bsp/sources/build/tcc805x/gcc/tcc805x-freertos-debug/obj/uart.o
UART_SetLineControlReg                            /home/junghyun/topst/cr5-bsp/sources/build/tcc805x/gcc/tcc805x-freertos-debug/obj/uart.o
                                                  /home/junghyun/topst/cr5-bsp/sources/build/tcc805x/gcc/tcc805x-freertos-debug/obj/lin.o
UART_Write                                        /home/junghyun/topst/cr5-bsp/sources/build/tcc805x/gcc/tcc805x-freertos-debug/obj/uart.o
                                                  /home/junghyun/topst/cr5-bsp/sources/build/tcc805x/gcc/tcc805x-freertos-debug/obj/console.o
UDMA_ChannelDisable                               /home/junghyun/topst/cr5-bsp/sources/build/tcc805x/gcc/tcc805x-freertos-debug/obj/udma.o
UDMA_ChannelEnable                                /home/junghyun/topst/cr5-bsp/sources/build/tcc805x/gcc/tcc805x-freertos-debug/obj/udma.o
                                                  /home/junghyun/topst/cr5-bsp/sources/build/tcc805x/gcc/tcc805x-freertos-debug/obj/uart.o
UDMA_GetDestAddr                                  /home/junghyun/topst/cr5-bsp/sources/build/tcc805x/gcc/tcc805x-freertos-debug/obj/udma.o
UDMA_GetTransferSize                              /home/junghyun/topst/cr5-bsp/sources/build/tcc805x/gcc/tcc805x-freertos-debug/obj/udma.o
                                                  /home/junghyun/topst/cr5-bsp/sources/build/tcc805x/gcc/tcc805x-freertos-debug/obj/uart.o
UDMA_Init                                         /home/junghyun/topst/cr5-bsp/sources/build/tcc805x/gcc/tcc805x-freertos-debug/obj/udma.o
                                                  /home/junghyun/topst/cr5-bsp/sources/build/tcc805x/gcc/tcc805x-freertos-debug/obj/uart.o
UDMA_InterruptDisable                             /home/junghyun/topst/cr5-bsp/sources/build/tcc805x/gcc/tcc805x-freertos-debug/obj/udma.o
UDMA_InterruptEnable                              /home/junghyun/topst/cr5-bsp/sources/build/tcc805x/gcc/tcc805x-freertos-debug/obj/udma.o
                                                  /home/junghyun/topst/cr5-bsp/sources/build/tcc805x/gcc/tcc805x-freertos-debug/obj/uart.o
UDMA_Reset                                        /home/junghyun/topst/cr5-bsp/sources/build/tcc805x/gcc/tcc805x-freertos-debug/obj/udma.o
                                                  /home/junghyun/topst/cr5-bsp/sources/build/tcc805x/gcc/tcc805x-freertos-debug/obj/uart.o
UDMA_SetAddrIncrement                             /home/junghyun/topst/cr5-bsp/sources/build/tcc805x/gcc/tcc805x-freertos-debug/obj/udma.o
                                                  /home/junghyun/topst/cr5-bsp/sources/build/tcc805x/gcc/tcc805x-freertos-debug/obj/uart.o
UDMA_SetBurstSize                                 /home/junghyun/topst/cr5-bsp/sources/build/tcc805x/gcc/tcc805x-freertos-debug/obj/udma.o
                                                  /home/junghyun/topst/cr5-bsp/sources/build/tcc805x/gcc/tcc805x-freertos-debug/obj/uart.o
UDMA_SetDestAddr                                  /home/junghyun/topst/cr5-bsp/sources/build/tcc805x/gcc/tcc805x-freertos-debug/obj/udma.o
                                                  /home/junghyun/topst/cr5-bsp/sources/build/tcc805x/gcc/tcc805x-freertos-debug/obj/uart.o
UDMA_SetFlowControl                               /home/junghyun/topst/cr5-bsp/sources/build/tcc805x/gcc/tcc805x-freertos-debug/obj/udma.o
                                                  /home/junghyun/topst/cr5-bsp/sources/build/tcc805x/gcc/tcc805x-freertos-debug/obj/uart.o
UDMA_SetPeri                                      /home/junghyun/topst/cr5-bsp/sources/build/tcc805x/gcc/tcc805x-freertos-debug/obj/udma.o
                                                  /home/junghyun/topst/cr5-bsp/sources/build/tcc805x/gcc/tcc805x-freertos-debug/obj/uart.o
UDMA_SetSrcAddr                                   /home/junghyun/topst/cr5-bsp/sources/build/tcc805x/gcc/tcc805x-freertos-debug/obj/udma.o
                                                  /home/junghyun/topst/cr5-bsp/sources/build/tcc805x/gcc/tcc805x-freertos-debug/obj/uart.o
UDMA_SetTransferSize                              /home/junghyun/topst/cr5-bsp/sources/build/tcc805x/gcc/tcc805x-freertos-debug/obj/udma.o
                                                  /home/junghyun/topst/cr5-bsp/sources/build/tcc805x/gcc/tcc805x-freertos-debug/obj/uart.o
UDMA_SetTransferWidth                             /home/junghyun/topst/cr5-bsp/sources/build/tcc805x/gcc/tcc805x-freertos-debug/obj/udma.o
                                                  /home/junghyun/topst/cr5-bsp/sources/build/tcc805x/gcc/tcc805x-freertos-debug/obj/uart.o
UDMA_SetlliAddr                                   /home/junghyun/topst/cr5-bsp/sources/build/tcc805x/gcc/tcc805x-freertos-debug/obj/udma.o
UDMA_TransferMem2Mem                              /home/junghyun/topst/cr5-bsp/sources/build/tcc805x/gcc/tcc805x-freertos-debug/obj/udma.o
WDT_Init                                          /home/junghyun/topst/cr5-bsp/sources/build/tcc805x/gcc/tcc805x-freertos-debug/obj/wdt.o
                                                  /home/junghyun/topst/cr5-bsp/sources/build/tcc805x/gcc/tcc805x-freertos-debug/obj/bsp.o
                                                  /home/junghyun/topst/cr5-bsp/sources/build/tcc805x/gcc/tcc805x-freertos-debug/obj/wdt_test.o
WDT_KickPing                                      /home/junghyun/topst/cr5-bsp/sources/build/tcc805x/gcc/tcc805x-freertos-debug/obj/wdt.o
                                                  /home/junghyun/topst/cr5-bsp/sources/build/tcc805x/gcc/tcc805x-freertos-debug/obj/wdt_test.o
                                                  /home/junghyun/topst/cr5-bsp/sources/build/tcc805x/gcc/tcc805x-freertos-debug/obj/timer_test.o
WDT_ResetSystem                                   /home/junghyun/topst/cr5-bsp/sources/build/tcc805x/gcc/tcc805x-freertos-debug/obj/wdt.o
                                                  /home/junghyun/topst/cr5-bsp/sources/build/tcc805x/gcc/tcc805x-freertos-debug/obj/wdt_test.o
WDT_SmMode                                        /home/junghyun/topst/cr5-bsp/sources/build/tcc805x/gcc/tcc805x-freertos-debug/obj/wdt.o
                                                  /home/junghyun/topst/cr5-bsp/sources/build/tcc805x/gcc/tcc805x-freertos-debug/obj/wdt_test.o
                                                  /home/junghyun/topst/cr5-bsp/sources/build/tcc805x/gcc/tcc805x-freertos-debug/obj/timer_test.o
WDT_StartTest                                     /home/junghyun/topst/cr5-bsp/sources/build/tcc805x/gcc/tcc805x-freertos-debug/obj/wdt_test.o
                                                  /home/junghyun/topst/cr5-bsp/sources/build/tcc805x/gcc/tcc805x-freertos-debug/obj/console.o
WDT_Stop                                          /home/junghyun/topst/cr5-bsp/sources/build/tcc805x/gcc/tcc805x-freertos-debug/obj/wdt.o
                                                  /home/junghyun/topst/cr5-bsp/sources/build/tcc805x/gcc/tcc805x-freertos-debug/obj/wdt_test.o
                                                  /home/junghyun/topst/cr5-bsp/sources/build/tcc805x/gcc/tcc805x-freertos-debug/obj/timer_test.o
                                                  /home/junghyun/topst/cr5-bsp/sources/build/tcc805x/gcc/tcc805x-freertos-debug/obj/fwug.o
_PathLocale                                       /home/junghyun/topst/buildtools/gcc-linaro-7.2.1-2017.11-x86_64_arm-eabi/arm-eabi/libc/usr/lib/libc.a(lib_a-locale.o)
__BSS_END__                                       /home/junghyun/topst/cr5-bsp/sources/build/tcc805x/gcc/tcc805x-freertos-debug/obj/startup.o
__BSS_START__                                     /home/junghyun/topst/cr5-bsp/sources/build/tcc805x/gcc/tcc805x-freertos-debug/obj/startup.o
__C_locale                                        /home/junghyun/topst/buildtools/gcc-linaro-7.2.1-2017.11-x86_64_arm-eabi/arm-eabi/libc/usr/lib/libc.a(lib_a-locale.o)
__DATA_END__                                      /home/junghyun/topst/cr5-bsp/sources/build/tcc805x/gcc/tcc805x-freertos-debug/obj/startup.o
__DATA_START_LOAD                                 /home/junghyun/topst/cr5-bsp/sources/build/tcc805x/gcc/tcc805x-freertos-debug/obj/startup.o
__DATA_START__                                    /home/junghyun/topst/cr5-bsp/sources/build/tcc805x/gcc/tcc805x-freertos-debug/obj/startup.o
__DSB                                             /home/junghyun/topst/cr5-bsp/sources/build/tcc805x/gcc/tcc805x-freertos-debug/obj/freertos.o
                                                  /home/junghyun/topst/cr5-bsp/sources/build/tcc805x/gcc/tcc805x-freertos-debug/obj/sal_freertos_impl.o
__RODATA_END__                                    /home/junghyun/topst/cr5-bsp/sources/build/tcc805x/gcc/tcc805x-freertos-debug/obj/startup.o
__TEXT_START__                                    /home/junghyun/topst/cr5-bsp/sources/build/tcc805x/gcc/tcc805x-freertos-debug/obj/startup.o
__VECTOR_END__                                    /home/junghyun/topst/cr5-bsp/sources/build/tcc805x/gcc/tcc805x-freertos-debug/obj/startup.o
__VECTOR_START_LOAD                               /home/junghyun/topst/cr5-bsp/sources/build/tcc805x/gcc/tcc805x-freertos-debug/obj/startup.o
__VECTOR_START__                                  /home/junghyun/topst/cr5-bsp/sources/build/tcc805x/gcc/tcc805x-freertos-debug/obj/startup.o
__aeabi_idiv0                                     /home/junghyun/topst/buildtools/gcc-linaro-7.2.1-2017.11-x86_64_arm-eabi/arm-eabi/libc/usr/lib/libgcc.a(_dvmd_tls.o)
                                                  /home/junghyun/topst/buildtools/gcc-linaro-7.2.1-2017.11-x86_64_arm-eabi/arm-eabi/libc/usr/lib/libgcc.a(_udivsi3.o)
__aeabi_ldiv0                                     /home/junghyun/topst/buildtools/gcc-linaro-7.2.1-2017.11-x86_64_arm-eabi/arm-eabi/libc/usr/lib/libgcc.a(_dvmd_tls.o)
                                                  /home/junghyun/topst/buildtools/gcc-linaro-7.2.1-2017.11-x86_64_arm-eabi/arm-eabi/libc/usr/lib/libgcc.a(_aeabi_uldivmod.o)
__aeabi_uidiv                                     /home/junghyun/topst/buildtools/gcc-linaro-7.2.1-2017.11-x86_64_arm-eabi/arm-eabi/libc/usr/lib/libgcc.a(_udivsi3.o)
                                                  /home/junghyun/topst/buildtools/gcc-linaro-7.2.1-2017.11-x86_64_arm-eabi/arm-eabi/libc/usr/lib/libc.a(lib_a-strtoul.o)
__aeabi_uidivmod                                  /home/junghyun/topst/buildtools/gcc-linaro-7.2.1-2017.11-x86_64_arm-eabi/arm-eabi/libc/usr/lib/libgcc.a(_udivsi3.o)
                                                  /home/junghyun/topst/buildtools/gcc-linaro-7.2.1-2017.11-x86_64_arm-eabi/arm-eabi/libc/usr/lib/libc.a(lib_a-strtoul.o)
                                                  /home/junghyun/topst/buildtools/gcc-linaro-7.2.1-2017.11-x86_64_arm-eabi/arm-eabi/libc/usr/lib/libc.a(lib_a-strtol.o)
__aeabi_uldivmod                                  /home/junghyun/topst/buildtools/gcc-linaro-7.2.1-2017.11-x86_64_arm-eabi/arm-eabi/libc/usr/lib/libgcc.a(_aeabi_uldivmod.o)
                                                  /home/junghyun/topst/cr5-bsp/sources/build/tcc805x/gcc/tcc805x-freertos-debug/obj/clock_dev.o
__ascii_mbtowc                                    /home/junghyun/topst/buildtools/gcc-linaro-7.2.1-2017.11-x86_64_arm-eabi/arm-eabi/libc/usr/lib/libc.a(lib_a-mbtowc_r.o)
                                                  /home/junghyun/topst/buildtools/gcc-linaro-7.2.1-2017.11-x86_64_arm-eabi/arm-eabi/libc/usr/lib/libc.a(lib_a-locale.o)
__ascii_wctomb                                    /home/junghyun/topst/buildtools/gcc-linaro-7.2.1-2017.11-x86_64_arm-eabi/arm-eabi/libc/usr/lib/libc.a(lib_a-wctomb_r.o)
                                                  /home/junghyun/topst/buildtools/gcc-linaro-7.2.1-2017.11-x86_64_arm-eabi/arm-eabi/libc/usr/lib/libc.a(lib_a-locale.o)
__clzdi2                                          /home/junghyun/topst/buildtools/gcc-linaro-7.2.1-2017.11-x86_64_arm-eabi/arm-eabi/libc/usr/lib/libgcc.a(_clzdi2.o)
                                                  /home/junghyun/topst/buildtools/gcc-linaro-7.2.1-2017.11-x86_64_arm-eabi/arm-eabi/libc/usr/lib/libgcc.a(_udivmoddi4.o)
__clzsi2                                          /home/junghyun/topst/buildtools/gcc-linaro-7.2.1-2017.11-x86_64_arm-eabi/arm-eabi/libc/usr/lib/libgcc.a(_clzsi2.o)
                                                  /home/junghyun/topst/buildtools/gcc-linaro-7.2.1-2017.11-x86_64_arm-eabi/arm-eabi/libc/usr/lib/libgcc.a(_clzdi2.o)
__default_locale                                  /home/junghyun/topst/buildtools/gcc-linaro-7.2.1-2017.11-x86_64_arm-eabi/arm-eabi/libc/usr/lib/libc.a(lib_a-locale.o)
__env_lock                                        /home/junghyun/topst/buildtools/gcc-linaro-7.2.1-2017.11-x86_64_arm-eabi/arm-eabi/libc/usr/lib/libc.a(lib_a-envlock.o)
                                                  /home/junghyun/topst/buildtools/gcc-linaro-7.2.1-2017.11-x86_64_arm-eabi/arm-eabi/libc/usr/lib/libc.a(lib_a-getenv_r.o)
__env_unlock                                      /home/junghyun/topst/buildtools/gcc-linaro-7.2.1-2017.11-x86_64_arm-eabi/arm-eabi/libc/usr/lib/libc.a(lib_a-envlock.o)
                                                  /home/junghyun/topst/buildtools/gcc-linaro-7.2.1-2017.11-x86_64_arm-eabi/arm-eabi/libc/usr/lib/libc.a(lib_a-getenv_r.o)
__eucjp_mbtowc                                    /home/junghyun/topst/buildtools/gcc-linaro-7.2.1-2017.11-x86_64_arm-eabi/arm-eabi/libc/usr/lib/libc.a(lib_a-mbtowc_r.o)
                                                  /home/junghyun/topst/buildtools/gcc-linaro-7.2.1-2017.11-x86_64_arm-eabi/arm-eabi/libc/usr/lib/libc.a(lib_a-locale.o)
__eucjp_wctomb                                    /home/junghyun/topst/buildtools/gcc-linaro-7.2.1-2017.11-x86_64_arm-eabi/arm-eabi/libc/usr/lib/libc.a(lib_a-wctomb_r.o)
                                                  /home/junghyun/topst/buildtools/gcc-linaro-7.2.1-2017.11-x86_64_arm-eabi/arm-eabi/libc/usr/lib/libc.a(lib_a-locale.o)
__get_locale_env                                  /home/junghyun/topst/buildtools/gcc-linaro-7.2.1-2017.11-x86_64_arm-eabi/arm-eabi/libc/usr/lib/libc.a(lib_a-locale.o)
__global_locale                                   /home/junghyun/topst/buildtools/gcc-linaro-7.2.1-2017.11-x86_64_arm-eabi/arm-eabi/libc/usr/lib/libc.a(lib_a-locale.o)
                                                  /home/junghyun/topst/buildtools/gcc-linaro-7.2.1-2017.11-x86_64_arm-eabi/arm-eabi/libc/usr/lib/libc.a(lib_a-wctomb_r.o)
                                                  /home/junghyun/topst/buildtools/gcc-linaro-7.2.1-2017.11-x86_64_arm-eabi/arm-eabi/libc/usr/lib/libc.a(lib_a-mbtowc_r.o)
                                                  /home/junghyun/topst/buildtools/gcc-linaro-7.2.1-2017.11-x86_64_arm-eabi/arm-eabi/libc/usr/lib/libc.a(lib_a-strtoul.o)
                                                  /home/junghyun/topst/buildtools/gcc-linaro-7.2.1-2017.11-x86_64_arm-eabi/arm-eabi/libc/usr/lib/libc.a(lib_a-strtol.o)
__jis_mbtowc                                      /home/junghyun/topst/buildtools/gcc-linaro-7.2.1-2017.11-x86_64_arm-eabi/arm-eabi/libc/usr/lib/libc.a(lib_a-mbtowc_r.o)
                                                  /home/junghyun/topst/buildtools/gcc-linaro-7.2.1-2017.11-x86_64_arm-eabi/arm-eabi/libc/usr/lib/libc.a(lib_a-locale.o)
__jis_wctomb                                      /home/junghyun/topst/buildtools/gcc-linaro-7.2.1-2017.11-x86_64_arm-eabi/arm-eabi/libc/usr/lib/libc.a(lib_a-wctomb_r.o)
                                                  /home/junghyun/topst/buildtools/gcc-linaro-7.2.1-2017.11-x86_64_arm-eabi/arm-eabi/libc/usr/lib/libc.a(lib_a-locale.o)
__loadlocale                                      /home/junghyun/topst/buildtools/gcc-linaro-7.2.1-2017.11-x86_64_arm-eabi/arm-eabi/libc/usr/lib/libc.a(lib_a-locale.o)
__locale_ctype_ptr                                /home/junghyun/topst/buildtools/gcc-linaro-7.2.1-2017.11-x86_64_arm-eabi/arm-eabi/libc/usr/lib/libc.a(lib_a-locale.o)
                                                  /home/junghyun/topst/buildtools/gcc-linaro-7.2.1-2017.11-x86_64_arm-eabi/arm-eabi/libc/usr/lib/libc.a(lib_a-strncasecmp.o)
                                                  /home/junghyun/topst/buildtools/gcc-linaro-7.2.1-2017.11-x86_64_arm-eabi/arm-eabi/libc/usr/lib/libc.a(lib_a-strcasecmp.o)
__locale_ctype_ptr_l                              /home/junghyun/topst/buildtools/gcc-linaro-7.2.1-2017.11-x86_64_arm-eabi/arm-eabi/libc/usr/lib/libc.a(lib_a-locale.o)
                                                  /home/junghyun/topst/buildtools/gcc-linaro-7.2.1-2017.11-x86_64_arm-eabi/arm-eabi/libc/usr/lib/libc.a(lib_a-strtoul.o)
                                                  /home/junghyun/topst/buildtools/gcc-linaro-7.2.1-2017.11-x86_64_arm-eabi/arm-eabi/libc/usr/lib/libc.a(lib_a-strtol.o)
__locale_mb_cur_max                               /home/junghyun/topst/buildtools/gcc-linaro-7.2.1-2017.11-x86_64_arm-eabi/arm-eabi/libc/usr/lib/libc.a(lib_a-locale.o)
__nc_dmastart                                     /home/junghyun/topst/cr5-bsp/sources/build/tcc805x/gcc/tcc805x-freertos-debug/obj/mpu.o
__set_ctype                                       /home/junghyun/topst/buildtools/gcc-linaro-7.2.1-2017.11-x86_64_arm-eabi/arm-eabi/libc/usr/lib/libc.a(lib_a-ctype_.o)
                                                  /home/junghyun/topst/buildtools/gcc-linaro-7.2.1-2017.11-x86_64_arm-eabi/arm-eabi/libc/usr/lib/libc.a(lib_a-locale.o)
__sjis_mbtowc                                     /home/junghyun/topst/buildtools/gcc-linaro-7.2.1-2017.11-x86_64_arm-eabi/arm-eabi/libc/usr/lib/libc.a(lib_a-mbtowc_r.o)
                                                  /home/junghyun/topst/buildtools/gcc-linaro-7.2.1-2017.11-x86_64_arm-eabi/arm-eabi/libc/usr/lib/libc.a(lib_a-locale.o)
__sjis_wctomb                                     /home/junghyun/topst/buildtools/gcc-linaro-7.2.1-2017.11-x86_64_arm-eabi/arm-eabi/libc/usr/lib/libc.a(lib_a-wctomb_r.o)
                                                  /home/junghyun/topst/buildtools/gcc-linaro-7.2.1-2017.11-x86_64_arm-eabi/arm-eabi/libc/usr/lib/libc.a(lib_a-locale.o)
__udivmoddi4                                      /home/junghyun/topst/buildtools/gcc-linaro-7.2.1-2017.11-x86_64_arm-eabi/arm-eabi/libc/usr/lib/libgcc.a(_udivmoddi4.o)
                                                  /home/junghyun/topst/buildtools/gcc-linaro-7.2.1-2017.11-x86_64_arm-eabi/arm-eabi/libc/usr/lib/libgcc.a(_aeabi_uldivmod.o)
__udivsi3                                         /home/junghyun/topst/buildtools/gcc-linaro-7.2.1-2017.11-x86_64_arm-eabi/arm-eabi/libc/usr/lib/libgcc.a(_udivsi3.o)
__utf8_mbtowc                                     /home/junghyun/topst/buildtools/gcc-linaro-7.2.1-2017.11-x86_64_arm-eabi/arm-eabi/libc/usr/lib/libc.a(lib_a-mbtowc_r.o)
                                                  /home/junghyun/topst/buildtools/gcc-linaro-7.2.1-2017.11-x86_64_arm-eabi/arm-eabi/libc/usr/lib/libc.a(lib_a-locale.o)
__utf8_wctomb                                     /home/junghyun/topst/buildtools/gcc-linaro-7.2.1-2017.11-x86_64_arm-eabi/arm-eabi/libc/usr/lib/libc.a(lib_a-wctomb_r.o)
                                                  /home/junghyun/topst/buildtools/gcc-linaro-7.2.1-2017.11-x86_64_arm-eabi/arm-eabi/libc/usr/lib/libc.a(lib_a-locale.o)
_atoi_r                                           /home/junghyun/topst/buildtools/gcc-linaro-7.2.1-2017.11-x86_64_arm-eabi/arm-eabi/libc/usr/lib/libc.a(lib_a-atoi.o)
_atol_r                                           /home/junghyun/topst/buildtools/gcc-linaro-7.2.1-2017.11-x86_64_arm-eabi/arm-eabi/libc/usr/lib/libc.a(lib_a-atol.o)
_ctype_                                           /home/junghyun/topst/buildtools/gcc-linaro-7.2.1-2017.11-x86_64_arm-eabi/arm-eabi/libc/usr/lib/libc.a(lib_a-ctype_.o)
                                                  /home/junghyun/topst/buildtools/gcc-linaro-7.2.1-2017.11-x86_64_arm-eabi/arm-eabi/libc/usr/lib/libc.a(lib_a-locale.o)
_findenv_r                                        /home/junghyun/topst/buildtools/gcc-linaro-7.2.1-2017.11-x86_64_arm-eabi/arm-eabi/libc/usr/lib/libc.a(lib_a-getenv_r.o)
_getenv_r                                         /home/junghyun/topst/buildtools/gcc-linaro-7.2.1-2017.11-x86_64_arm-eabi/arm-eabi/libc/usr/lib/libc.a(lib_a-getenv_r.o)
                                                  /home/junghyun/topst/buildtools/gcc-linaro-7.2.1-2017.11-x86_64_arm-eabi/arm-eabi/libc/usr/lib/libc.a(lib_a-locale.o)
_global_impure_ptr                                /home/junghyun/topst/buildtools/gcc-linaro-7.2.1-2017.11-x86_64_arm-eabi/arm-eabi/libc/usr/lib/libc.a(lib_a-impure.o)
_impure_ptr                                       /home/junghyun/topst/buildtools/gcc-linaro-7.2.1-2017.11-x86_64_arm-eabi/arm-eabi/libc/usr/lib/libc.a(lib_a-impure.o)
                                                  /home/junghyun/topst/buildtools/gcc-linaro-7.2.1-2017.11-x86_64_arm-eabi/arm-eabi/libc/usr/lib/libc.a(lib_a-wctomb_r.o)
                                                  /home/junghyun/topst/buildtools/gcc-linaro-7.2.1-2017.11-x86_64_arm-eabi/arm-eabi/libc/usr/lib/libc.a(lib_a-mbtowc_r.o)
                                                  /home/junghyun/topst/buildtools/gcc-linaro-7.2.1-2017.11-x86_64_arm-eabi/arm-eabi/libc/usr/lib/libc.a(lib_a-locale.o)
                                                  /home/junghyun/topst/buildtools/gcc-linaro-7.2.1-2017.11-x86_64_arm-eabi/arm-eabi/libc/usr/lib/libc.a(lib_a-strtoul.o)
                                                  /home/junghyun/topst/buildtools/gcc-linaro-7.2.1-2017.11-x86_64_arm-eabi/arm-eabi/libc/usr/lib/libc.a(lib_a-strtol.o)
_mbtowc_r                                         /home/junghyun/topst/buildtools/gcc-linaro-7.2.1-2017.11-x86_64_arm-eabi/arm-eabi/libc/usr/lib/libc.a(lib_a-mbtowc_r.o)
_setlocale_r                                      /home/junghyun/topst/buildtools/gcc-linaro-7.2.1-2017.11-x86_64_arm-eabi/arm-eabi/libc/usr/lib/libc.a(lib_a-locale.o)
_start                                            /home/junghyun/topst/cr5-bsp/sources/build/tcc805x/gcc/tcc805x-freertos-debug/obj/vector.o
_strtol_r                                         /home/junghyun/topst/buildtools/gcc-linaro-7.2.1-2017.11-x86_64_arm-eabi/arm-eabi/libc/usr/lib/libc.a(lib_a-strtol.o)
                                                  /home/junghyun/topst/buildtools/gcc-linaro-7.2.1-2017.11-x86_64_arm-eabi/arm-eabi/libc/usr/lib/libc.a(lib_a-atol.o)
                                                  /home/junghyun/topst/buildtools/gcc-linaro-7.2.1-2017.11-x86_64_arm-eabi/arm-eabi/libc/usr/lib/libc.a(lib_a-atoi.o)
_strtoul_r                                        /home/junghyun/topst/buildtools/gcc-linaro-7.2.1-2017.11-x86_64_arm-eabi/arm-eabi/libc/usr/lib/libc.a(lib_a-strtoul.o)
_vector                                           /home/junghyun/topst/cr5-bsp/sources/build/tcc805x/gcc/tcc805x-freertos-debug/obj/vector.o
_wctomb_r                                         /home/junghyun/topst/buildtools/gcc-linaro-7.2.1-2017.11-x86_64_arm-eabi/arm-eabi/libc/usr/lib/libc.a(lib_a-wctomb_r.o)
atoi                                              /home/junghyun/topst/buildtools/gcc-linaro-7.2.1-2017.11-x86_64_arm-eabi/arm-eabi/libc/usr/lib/libc.a(lib_a-atoi.o)
                                                  /home/junghyun/topst/cr5-bsp/sources/build/tcc805x/gcc/tcc805x-freertos-debug/obj/console.o
atol                                              /home/junghyun/topst/buildtools/gcc-linaro-7.2.1-2017.11-x86_64_arm-eabi/arm-eabi/libc/usr/lib/libc.a(lib_a-atol.o)
                                                  /home/junghyun/topst/cr5-bsp/sources/build/tcc805x/gcc/tcc805x-freertos-debug/obj/hsm_test.o
cbFunc                                            /home/junghyun/topst/cr5-bsp/sources/build/tcc805x/gcc/tcc805x-freertos-debug/obj/ipc_api.o
                                                  /home/junghyun/topst/cr5-bsp/sources/build/tcc805x/gcc/tcc805x-freertos-debug/obj/ipc.o
                                                  /home/junghyun/topst/cr5-bsp/sources/build/tcc805x/gcc/tcc805x-freertos-debug/obj/ipc_parser.o
cmain                                             /home/junghyun/topst/cr5-bsp/sources/build/tcc805x/gcc/tcc805x-freertos-debug/obj/main.o
                                                  /home/junghyun/topst/cr5-bsp/sources/build/tcc805x/gcc/tcc805x-freertos-debug/obj/startup.o
dbgTags                                           /home/junghyun/topst/cr5-bsp/sources/build/tcc805x/gcc/tcc805x-freertos-debug/obj/debug.o
                                                  /home/junghyun/topst/cr5-bsp/sources/build/tcc805x/gcc/tcc805x-freertos-debug/obj/sal_freertos_impl.o
                                                  /home/junghyun/topst/cr5-bsp/sources/build/tcc805x/gcc/tcc805x-freertos-debug/obj/dse.o
                                                  /home/junghyun/topst/cr5-bsp/sources/build/tcc805x/gcc/tcc805x-freertos-debug/obj/wdt.o
                                                  /home/junghyun/topst/cr5-bsp/sources/build/tcc805x/gcc/tcc805x-freertos-debug/obj/uart.o
                                                  /home/junghyun/topst/cr5-bsp/sources/build/tcc805x/gcc/tcc805x-freertos-debug/obj/timer.o
                                                  /home/junghyun/topst/cr5-bsp/sources/build/tcc805x/gcc/tcc805x-freertos-debug/obj/gpsb.o
                                                  /home/junghyun/topst/cr5-bsp/sources/build/tcc805x/gcc/tcc805x-freertos-debug/obj/pdm.o
                                                  /home/junghyun/topst/cr5-bsp/sources/build/tcc805x/gcc/tcc805x-freertos-debug/obj/mbox.o
                                                  /home/junghyun/topst/cr5-bsp/sources/build/tcc805x/gcc/tcc805x-freertos-debug/obj/mbox_dev.o
                                                  /home/junghyun/topst/cr5-bsp/sources/build/tcc805x/gcc/tcc805x-freertos-debug/obj/ictc.o
                                                  /home/junghyun/topst/cr5-bsp/sources/build/tcc805x/gcc/tcc805x-freertos-debug/obj/i2c.o
                                                  /home/junghyun/topst/cr5-bsp/sources/build/tcc805x/gcc/tcc805x-freertos-debug/obj/gpio.o
                                                  /home/junghyun/topst/cr5-bsp/sources/build/tcc805x/gcc/tcc805x-freertos-debug/obj/gdma.o
                                                  /home/junghyun/topst/cr5-bsp/sources/build/tcc805x/gcc/tcc805x-freertos-debug/obj/fmu.o
                                                  /home/junghyun/topst/cr5-bsp/sources/build/tcc805x/gcc/tcc805x-freertos-debug/obj/can_drv.o
                                                  /home/junghyun/topst/cr5-bsp/sources/build/tcc805x/gcc/tcc805x-freertos-debug/obj/can.o
                                                  /home/junghyun/topst/cr5-bsp/sources/build/tcc805x/gcc/tcc805x-freertos-debug/obj/adc.o
                                                  /home/junghyun/topst/cr5-bsp/sources/build/tcc805x/gcc/tcc805x-freertos-debug/obj/sdm.o
                                                  /home/junghyun/topst/cr5-bsp/sources/build/tcc805x/gcc/tcc805x-freertos-debug/obj/lin.o
                                                  /home/junghyun/topst/cr5-bsp/sources/build/tcc805x/gcc/tcc805x-freertos-debug/obj/ipc_api.o
                                                  /home/junghyun/topst/cr5-bsp/sources/build/tcc805x/gcc/tcc805x-freertos-debug/obj/ipc_ctl.o
                                                  /home/junghyun/topst/cr5-bsp/sources/build/tcc805x/gcc/tcc805x-freertos-debug/obj/ipc_buffer.o
                                                  /home/junghyun/topst/cr5-bsp/sources/build/tcc805x/gcc/tcc805x-freertos-debug/obj/mptool.o
                                                  /home/junghyun/topst/cr5-bsp/sources/build/tcc805x/gcc/tcc805x-freertos-debug/obj/gdma_test.o
                                                  /home/junghyun/topst/cr5-bsp/sources/build/tcc805x/gcc/tcc805x-freertos-debug/obj/key_i2c.o
                                                  /home/junghyun/topst/cr5-bsp/sources/build/tcc805x/gcc/tcc805x-freertos-debug/obj/fwug.o
                                                  /home/junghyun/topst/cr5-bsp/sources/build/tcc805x/gcc/tcc805x-freertos-debug/obj/console.o
                                                  /home/junghyun/topst/cr5-bsp/sources/build/tcc805x/gcc/tcc805x-freertos-debug/obj/can_demo.o
dev                                               /home/junghyun/topst/cr5-bsp/sources/build/tcc805x/gcc/tcc805x-freertos-debug/obj/ipc_ctl.o
                                                  /home/junghyun/topst/cr5-bsp/sources/build/tcc805x/gcc/tcc805x-freertos-debug/obj/ipc_cmd.o
eTaskGetState                                     /home/junghyun/topst/cr5-bsp/sources/build/tcc805x/gcc/tcc805x-freertos-debug/obj/tasks.o
environ                                           /home/junghyun/topst/buildtools/gcc-linaro-7.2.1-2017.11-x86_64_arm-eabi/arm-eabi/libc/usr/lib/libc.a(lib_a-environ.o)
                                                  /home/junghyun/topst/buildtools/gcc-linaro-7.2.1-2017.11-x86_64_arm-eabi/arm-eabi/libc/usr/lib/libc.a(lib_a-getenv_r.o)
gALiveMsgOnOff                                    /home/junghyun/topst/cr5-bsp/sources/build/tcc805x/gcc/tcc805x-freertos-debug/obj/main.o
                                                  /home/junghyun/topst/cr5-bsp/sources/build/tcc805x/gcc/tcc805x-freertos-debug/obj/console.o
gDebugOption                                      /home/junghyun/topst/cr5-bsp/sources/build/tcc805x/gcc/tcc805x-freertos-debug/obj/debug.o
                                                  /home/junghyun/topst/cr5-bsp/sources/build/tcc805x/gcc/tcc805x-freertos-debug/obj/sal_freertos_impl.o
                                                  /home/junghyun/topst/cr5-bsp/sources/build/tcc805x/gcc/tcc805x-freertos-debug/obj/dse.o
                                                  /home/junghyun/topst/cr5-bsp/sources/build/tcc805x/gcc/tcc805x-freertos-debug/obj/wdt.o
                                                  /home/junghyun/topst/cr5-bsp/sources/build/tcc805x/gcc/tcc805x-freertos-debug/obj/uart.o
                                                  /home/junghyun/topst/cr5-bsp/sources/build/tcc805x/gcc/tcc805x-freertos-debug/obj/timer.o
                                                  /home/junghyun/topst/cr5-bsp/sources/build/tcc805x/gcc/tcc805x-freertos-debug/obj/gpsb.o
                                                  /home/junghyun/topst/cr5-bsp/sources/build/tcc805x/gcc/tcc805x-freertos-debug/obj/pdm.o
                                                  /home/junghyun/topst/cr5-bsp/sources/build/tcc805x/gcc/tcc805x-freertos-debug/obj/mbox.o
                                                  /home/junghyun/topst/cr5-bsp/sources/build/tcc805x/gcc/tcc805x-freertos-debug/obj/mbox_dev.o
                                                  /home/junghyun/topst/cr5-bsp/sources/build/tcc805x/gcc/tcc805x-freertos-debug/obj/ictc.o
                                                  /home/junghyun/topst/cr5-bsp/sources/build/tcc805x/gcc/tcc805x-freertos-debug/obj/i2c.o
                                                  /home/junghyun/topst/cr5-bsp/sources/build/tcc805x/gcc/tcc805x-freertos-debug/obj/gpio.o
                                                  /home/junghyun/topst/cr5-bsp/sources/build/tcc805x/gcc/tcc805x-freertos-debug/obj/gdma.o
                                                  /home/junghyun/topst/cr5-bsp/sources/build/tcc805x/gcc/tcc805x-freertos-debug/obj/fmu.o
                                                  /home/junghyun/topst/cr5-bsp/sources/build/tcc805x/gcc/tcc805x-freertos-debug/obj/can_drv.o
                                                  /home/junghyun/topst/cr5-bsp/sources/build/tcc805x/gcc/tcc805x-freertos-debug/obj/can.o
                                                  /home/junghyun/topst/cr5-bsp/sources/build/tcc805x/gcc/tcc805x-freertos-debug/obj/adc.o
                                                  /home/junghyun/topst/cr5-bsp/sources/build/tcc805x/gcc/tcc805x-freertos-debug/obj/sdm.o
                                                  /home/junghyun/topst/cr5-bsp/sources/build/tcc805x/gcc/tcc805x-freertos-debug/obj/lin.o
                                                  /home/junghyun/topst/cr5-bsp/sources/build/tcc805x/gcc/tcc805x-freertos-debug/obj/ipc_api.o
                                                  /home/junghyun/topst/cr5-bsp/sources/build/tcc805x/gcc/tcc805x-freertos-debug/obj/ipc_ctl.o
                                                  /home/junghyun/topst/cr5-bsp/sources/build/tcc805x/gcc/tcc805x-freertos-debug/obj/ipc_buffer.o
                                                  /home/junghyun/topst/cr5-bsp/sources/build/tcc805x/gcc/tcc805x-freertos-debug/obj/mptool.o
                                                  /home/junghyun/topst/cr5-bsp/sources/build/tcc805x/gcc/tcc805x-freertos-debug/obj/gdma_test.o
                                                  /home/junghyun/topst/cr5-bsp/sources/build/tcc805x/gcc/tcc805x-freertos-debug/obj/key_i2c.o
                                                  /home/junghyun/topst/cr5-bsp/sources/build/tcc805x/gcc/tcc805x-freertos-debug/obj/fwug.o
                                                  /home/junghyun/topst/cr5-bsp/sources/build/tcc805x/gcc/tcc805x-freertos-debug/obj/console.o
                                                  /home/junghyun/topst/cr5-bsp/sources/build/tcc805x/gcc/tcc805x-freertos-debug/obj/can_demo.o
gIPCHandler                                       /home/junghyun/topst/cr5-bsp/sources/build/tcc805x/gcc/tcc805x-freertos-debug/obj/ipc_ctl.o
                                                  /home/junghyun/topst/cr5-bsp/sources/build/tcc805x/gcc/tcc805x-freertos-debug/obj/ipc_api.o
gSALCoreTable                                     /home/junghyun/topst/cr5-bsp/sources/build/tcc805x/gcc/tcc805x-freertos-debug/obj/sal_api.o
                                                  /home/junghyun/topst/cr5-bsp/sources/build/tcc805x/gcc/tcc805x-freertos-debug/obj/port.o
                                                  /home/junghyun/topst/cr5-bsp/sources/build/tcc805x/gcc/tcc805x-freertos-debug/obj/gpsb.o
                                                  /home/junghyun/topst/cr5-bsp/sources/build/tcc805x/gcc/tcc805x-freertos-debug/obj/i2c.o
                                                  /home/junghyun/topst/cr5-bsp/sources/build/tcc805x/gcc/tcc805x-freertos-debug/obj/gic.o
                                                  /home/junghyun/topst/cr5-bsp/sources/build/tcc805x/gcc/tcc805x-freertos-debug/obj/bsp.o
                                                  /home/junghyun/topst/cr5-bsp/sources/build/tcc805x/gcc/tcc805x-freertos-debug/obj/clock_dev.o
                                                  /home/junghyun/topst/cr5-bsp/sources/build/tcc805x/gcc/tcc805x-freertos-debug/obj/ipc_api.o
                                                  /home/junghyun/topst/cr5-bsp/sources/build/tcc805x/gcc/tcc805x-freertos-debug/obj/fwug.o
gSALDataStructTable                               /home/junghyun/topst/cr5-bsp/sources/build/tcc805x/gcc/tcc805x-freertos-debug/obj/sal_api.o
                                                  /home/junghyun/topst/cr5-bsp/sources/build/tcc805x/gcc/tcc805x-freertos-debug/obj/pmu_reset.o
                                                  /home/junghyun/topst/cr5-bsp/sources/build/tcc805x/gcc/tcc805x-freertos-debug/obj/ipc_ctl.o
gSALEtcTable                                      /home/junghyun/topst/cr5-bsp/sources/build/tcc805x/gcc/tcc805x-freertos-debug/obj/sal_api.o
                                                  /home/junghyun/topst/cr5-bsp/sources/build/tcc805x/gcc/tcc805x-freertos-debug/obj/ipc_os.o
                                                  /home/junghyun/topst/cr5-bsp/sources/build/tcc805x/gcc/tcc805x-freertos-debug/obj/timer_test.o
                                                  /home/junghyun/topst/cr5-bsp/sources/build/tcc805x/gcc/tcc805x-freertos-debug/obj/system_monitoring.o
                                                  /home/junghyun/topst/cr5-bsp/sources/build/tcc805x/gcc/tcc805x-freertos-debug/obj/main.o
gSALFileTable                                     /home/junghyun/topst/cr5-bsp/sources/build/tcc805x/gcc/tcc805x-freertos-debug/obj/sal_api.o
gSALMemoryTable                                   /home/junghyun/topst/cr5-bsp/sources/build/tcc805x/gcc/tcc805x-freertos-debug/obj/sal_api.o
                                                  /home/junghyun/topst/cr5-bsp/sources/build/tcc805x/gcc/tcc805x-freertos-debug/obj/uart.o
                                                  /home/junghyun/topst/cr5-bsp/sources/build/tcc805x/gcc/tcc805x-freertos-debug/obj/gpsb.o
                                                  /home/junghyun/topst/cr5-bsp/sources/build/tcc805x/gcc/tcc805x-freertos-debug/obj/pdm.o
                                                  /home/junghyun/topst/cr5-bsp/sources/build/tcc805x/gcc/tcc805x-freertos-debug/obj/i2c.o
                                                  /home/junghyun/topst/cr5-bsp/sources/build/tcc805x/gcc/tcc805x-freertos-debug/obj/clock_dev.o
                                                  /home/junghyun/topst/cr5-bsp/sources/build/tcc805x/gcc/tcc805x-freertos-debug/obj/can_msg.o
                                                  /home/junghyun/topst/cr5-bsp/sources/build/tcc805x/gcc/tcc805x-freertos-debug/obj/can_drv.o
                                                  /home/junghyun/topst/cr5-bsp/sources/build/tcc805x/gcc/tcc805x-freertos-debug/obj/hsm_manager.o
                                                  /home/junghyun/topst/cr5-bsp/sources/build/tcc805x/gcc/tcc805x-freertos-debug/obj/sdm.o
                                                  /home/junghyun/topst/cr5-bsp/sources/build/tcc805x/gcc/tcc805x-freertos-debug/obj/lin.o
                                                  /home/junghyun/topst/cr5-bsp/sources/build/tcc805x/gcc/tcc805x-freertos-debug/obj/ipc_ctl.o
                                                  /home/junghyun/topst/cr5-bsp/sources/build/tcc805x/gcc/tcc805x-freertos-debug/obj/ipc_cmd.o
                                                  /home/junghyun/topst/cr5-bsp/sources/build/tcc805x/gcc/tcc805x-freertos-debug/obj/ipc_buffer.o
                                                  /home/junghyun/topst/cr5-bsp/sources/build/tcc805x/gcc/tcc805x-freertos-debug/obj/pmio_test.o
                                                  /home/junghyun/topst/cr5-bsp/sources/build/tcc805x/gcc/tcc805x-freertos-debug/obj/lin_test.o
                                                  /home/junghyun/topst/cr5-bsp/sources/build/tcc805x/gcc/tcc805x-freertos-debug/obj/hsm_test.o
                                                  /home/junghyun/topst/cr5-bsp/sources/build/tcc805x/gcc/tcc805x-freertos-debug/obj/gpsb_test.o
                                                  /home/junghyun/topst/cr5-bsp/sources/build/tcc805x/gcc/tcc805x-freertos-debug/obj/reset_demo.o
                                                  /home/junghyun/topst/cr5-bsp/sources/build/tcc805x/gcc/tcc805x-freertos-debug/obj/bootctrl.o
                                                  /home/junghyun/topst/cr5-bsp/sources/build/tcc805x/gcc/tcc805x-freertos-debug/obj/system_monitoring.o
                                                  /home/junghyun/topst/cr5-bsp/sources/build/tcc805x/gcc/tcc805x-freertos-debug/obj/key.o
                                                  /home/junghyun/topst/cr5-bsp/sources/build/tcc805x/gcc/tcc805x-freertos-debug/obj/key_adc.o
                                                  /home/junghyun/topst/cr5-bsp/sources/build/tcc805x/gcc/tcc805x-freertos-debug/obj/fwug.o
                                                  /home/junghyun/topst/cr5-bsp/sources/build/tcc805x/gcc/tcc805x-freertos-debug/obj/console.o
                                                  /home/junghyun/topst/cr5-bsp/sources/build/tcc805x/gcc/tcc805x-freertos-debug/obj/can_demo.o
gSALOSRunTable                                    /home/junghyun/topst/cr5-bsp/sources/build/tcc805x/gcc/tcc805x-freertos-debug/obj/sal_api.o
                                                  /home/junghyun/topst/cr5-bsp/sources/build/tcc805x/gcc/tcc805x-freertos-debug/obj/main.o
gSALSocketTable                                   /home/junghyun/topst/cr5-bsp/sources/build/tcc805x/gcc/tcc805x-freertos-debug/obj/sal_api.o
gSALSyncObjectTable                               /home/junghyun/topst/cr5-bsp/sources/build/tcc805x/gcc/tcc805x-freertos-debug/obj/sal_api.o
                                                  /home/junghyun/topst/cr5-bsp/sources/build/tcc805x/gcc/tcc805x-freertos-debug/obj/pmio_dev.o
                                                  /home/junghyun/topst/cr5-bsp/sources/build/tcc805x/gcc/tcc805x-freertos-debug/obj/mbox.o
                                                  /home/junghyun/topst/cr5-bsp/sources/build/tcc805x/gcc/tcc805x-freertos-debug/obj/gdma.o
                                                  /home/junghyun/topst/cr5-bsp/sources/build/tcc805x/gcc/tcc805x-freertos-debug/obj/ipc_os.o
gSALTaskTable                                     /home/junghyun/topst/cr5-bsp/sources/build/tcc805x/gcc/tcc805x-freertos-debug/obj/sal_api.o
                                                  /home/junghyun/topst/cr5-bsp/sources/build/tcc805x/gcc/tcc805x-freertos-debug/obj/project_i2c.o
                                                  /home/junghyun/topst/cr5-bsp/sources/build/tcc805x/gcc/tcc805x-freertos-debug/obj/pmu_reset.o
                                                  /home/junghyun/topst/cr5-bsp/sources/build/tcc805x/gcc/tcc805x-freertos-debug/obj/pmio_dev.o
                                                  /home/junghyun/topst/cr5-bsp/sources/build/tcc805x/gcc/tcc805x-freertos-debug/obj/lin.o
                                                  /home/junghyun/topst/cr5-bsp/sources/build/tcc805x/gcc/tcc805x-freertos-debug/obj/ipc_parser.o
                                                  /home/junghyun/topst/cr5-bsp/sources/build/tcc805x/gcc/tcc805x-freertos-debug/obj/ipc_ctl.o
                                                  /home/junghyun/topst/cr5-bsp/sources/build/tcc805x/gcc/tcc805x-freertos-debug/obj/ipc_os.o
                                                  /home/junghyun/topst/cr5-bsp/sources/build/tcc805x/gcc/tcc805x-freertos-debug/obj/mptool.o
                                                  /home/junghyun/topst/cr5-bsp/sources/build/tcc805x/gcc/tcc805x-freertos-debug/obj/pdm_test.o
                                                  /home/junghyun/topst/cr5-bsp/sources/build/tcc805x/gcc/tcc805x-freertos-debug/obj/ictc_test.o
                                                  /home/junghyun/topst/cr5-bsp/sources/build/tcc805x/gcc/tcc805x-freertos-debug/obj/bootctrl.o
                                                  /home/junghyun/topst/cr5-bsp/sources/build/tcc805x/gcc/tcc805x-freertos-debug/obj/system_monitoring.o
                                                  /home/junghyun/topst/cr5-bsp/sources/build/tcc805x/gcc/tcc805x-freertos-debug/obj/key.o
                                                  /home/junghyun/topst/cr5-bsp/sources/build/tcc805x/gcc/tcc805x-freertos-debug/obj/fwug.o
                                                  /home/junghyun/topst/cr5-bsp/sources/build/tcc805x/gcc/tcc805x-freertos-debug/obj/console.o
                                                  /home/junghyun/topst/cr5-bsp/sources/build/tcc805x/gcc/tcc805x-freertos-debug/obj/can_demo.o
                                                  /home/junghyun/topst/cr5-bsp/sources/build/tcc805x/gcc/tcc805x-freertos-debug/obj/main.o
gSALTraceTable                                    /home/junghyun/topst/cr5-bsp/sources/build/tcc805x/gcc/tcc805x-freertos-debug/obj/sal_api.o
                                                  /home/junghyun/topst/cr5-bsp/sources/build/tcc805x/gcc/tcc805x-freertos-debug/obj/wdt.o
                                                  /home/junghyun/topst/cr5-bsp/sources/build/tcc805x/gcc/tcc805x-freertos-debug/obj/udma.o
                                                  /home/junghyun/topst/cr5-bsp/sources/build/tcc805x/gcc/tcc805x-freertos-debug/obj/uart.o
                                                  /home/junghyun/topst/cr5-bsp/sources/build/tcc805x/gcc/tcc805x-freertos-debug/obj/timer.o
                                                  /home/junghyun/topst/cr5-bsp/sources/build/tcc805x/gcc/tcc805x-freertos-debug/obj/timer_test.o
gWait_irq                                         /home/junghyun/topst/cr5-bsp/sources/build/tcc805x/gcc/tcc805x-freertos-debug/obj/dse.o
                                                  /home/junghyun/topst/cr5-bsp/sources/build/tcc805x/gcc/tcc805x-freertos-debug/obj/dse_test.o
gpsb                                              /home/junghyun/topst/cr5-bsp/sources/build/tcc805x/gcc/tcc805x-freertos-debug/obj/gpsb_reg.o
                                                  /home/junghyun/topst/cr5-bsp/sources/build/tcc805x/gcc/tcc805x-freertos-debug/obj/gpsb.o
gpsb_sm                                           /home/junghyun/topst/cr5-bsp/sources/build/tcc805x/gcc/tcc805x-freertos-debug/obj/gpsb_reg.o
                                                  /home/junghyun/topst/cr5-bsp/sources/build/tcc805x/gcc/tcc805x-freertos-debug/obj/gpsb.o
gpsbport                                          /home/junghyun/topst/cr5-bsp/sources/build/tcc805x/gcc/tcc805x-freertos-debug/obj/gpsb_reg.o
                                                  /home/junghyun/topst/cr5-bsp/sources/build/tcc805x/gcc/tcc805x-freertos-debug/obj/gpsb.o
heap_init                                         /home/junghyun/topst/cr5-bsp/sources/build/tcc805x/gcc/tcc805x-freertos-debug/obj/port.o
                                                  /home/junghyun/topst/cr5-bsp/sources/build/tcc805x/gcc/tcc805x-freertos-debug/obj/sal_freertos_impl.o
i2c                                               /home/junghyun/topst/cr5-bsp/sources/build/tcc805x/gcc/tcc805x-freertos-debug/obj/i2c_reg.o
                                                  /home/junghyun/topst/cr5-bsp/sources/build/tcc805x/gcc/tcc805x-freertos-debug/obj/i2c.o
                                                  /home/junghyun/topst/cr5-bsp/sources/build/tcc805x/gcc/tcc805x-freertos-debug/obj/i2c_test.o
i2cport                                           /home/junghyun/topst/cr5-bsp/sources/build/tcc805x/gcc/tcc805x-freertos-debug/obj/i2c_reg.o
                                                  /home/junghyun/topst/cr5-bsp/sources/build/tcc805x/gcc/tcc805x-freertos-debug/obj/i2c.o
ipc_send_data                                     /home/junghyun/topst/cr5-bsp/sources/build/tcc805x/gcc/tcc805x-freertos-debug/obj/project_ipc.o
                                                  /home/junghyun/topst/cr5-bsp/sources/build/tcc805x/gcc/tcc805x-freertos-debug/obj/console.o
ipc_send_on_sound                                 /home/junghyun/topst/cr5-bsp/sources/build/tcc805x/gcc/tcc805x-freertos-debug/obj/project_ipc.o
                                                  /home/junghyun/topst/cr5-bsp/sources/build/tcc805x/gcc/tcc805x-freertos-debug/obj/console.o
mboxInfo                                          /home/junghyun/topst/cr5-bsp/sources/build/tcc805x/gcc/tcc805x-freertos-debug/obj/mbox_phy.o
                                                  /home/junghyun/topst/cr5-bsp/sources/build/tcc805x/gcc/tcc805x-freertos-debug/obj/mbox_dev.o
memcmp                                            /home/junghyun/topst/buildtools/gcc-linaro-7.2.1-2017.11-x86_64_arm-eabi/arm-eabi/libc/usr/lib/libc.a(lib_a-memcmp.o)
                                                  /home/junghyun/topst/cr5-bsp/sources/build/tcc805x/gcc/tcc805x-freertos-debug/obj/sal_freertos_impl.o
memcpy                                            /home/junghyun/topst/buildtools/gcc-linaro-7.2.1-2017.11-x86_64_arm-eabi/arm-eabi/libc/usr/lib/libc.a(lib_a-memcpy-stub.o)
                                                  /home/junghyun/topst/cr5-bsp/sources/build/tcc805x/gcc/tcc805x-freertos-debug/obj/sal_freertos_impl.o
                                                  /home/junghyun/topst/cr5-bsp/sources/build/tcc805x/gcc/tcc805x-freertos-debug/obj/stream_buffer.o
                                                  /home/junghyun/topst/cr5-bsp/sources/build/tcc805x/gcc/tcc805x-freertos-debug/obj/queue.o
                                                  /home/junghyun/topst/cr5-bsp/sources/build/tcc805x/gcc/tcc805x-freertos-debug/obj/dse_test.o
memset                                            /home/junghyun/topst/buildtools/gcc-linaro-7.2.1-2017.11-x86_64_arm-eabi/arm-eabi/libc/usr/lib/libc.a(lib_a-memset.o)
                                                  /home/junghyun/topst/cr5-bsp/sources/build/tcc805x/gcc/tcc805x-freertos-debug/obj/sal_freertos_impl.o
                                                  /home/junghyun/topst/cr5-bsp/sources/build/tcc805x/gcc/tcc805x-freertos-debug/obj/stream_buffer.o
                                                  /home/junghyun/topst/cr5-bsp/sources/build/tcc805x/gcc/tcc805x-freertos-debug/obj/tasks.o
                                                  /home/junghyun/topst/cr5-bsp/sources/build/tcc805x/gcc/tcc805x-freertos-debug/obj/mbox_dev.o
                                                  /home/junghyun/topst/cr5-bsp/sources/build/tcc805x/gcc/tcc805x-freertos-debug/obj/hsm_manager.o
                                                  /home/junghyun/topst/cr5-bsp/sources/build/tcc805x/gcc/tcc805x-freertos-debug/obj/hsm_test.o
                                                  /home/junghyun/topst/cr5-bsp/sources/build/tcc805x/gcc/tcc805x-freertos-debug/obj/console.o
pcQueueGetName                                    /home/junghyun/topst/cr5-bsp/sources/build/tcc805x/gcc/tcc805x-freertos-debug/obj/queue.o
pcTaskGetName                                     /home/junghyun/topst/cr5-bsp/sources/build/tcc805x/gcc/tcc805x-freertos-debug/obj/tasks.o
pcTimerGetName                                    /home/junghyun/topst/cr5-bsp/sources/build/tcc805x/gcc/tcc805x-freertos-debug/obj/timers.o
pvPortMalloc                                      /home/junghyun/topst/cr5-bsp/sources/build/tcc805x/gcc/tcc805x-freertos-debug/obj/heap_5.o
                                                  /home/junghyun/topst/cr5-bsp/sources/build/tcc805x/gcc/tcc805x-freertos-debug/obj/sal_freertos_impl.o
                                                  /home/junghyun/topst/cr5-bsp/sources/build/tcc805x/gcc/tcc805x-freertos-debug/obj/stream_buffer.o
                                                  /home/junghyun/topst/cr5-bsp/sources/build/tcc805x/gcc/tcc805x-freertos-debug/obj/timers.o
                                                  /home/junghyun/topst/cr5-bsp/sources/build/tcc805x/gcc/tcc805x-freertos-debug/obj/event_groups.o
                                                  /home/junghyun/topst/cr5-bsp/sources/build/tcc805x/gcc/tcc805x-freertos-debug/obj/queue.o
                                                  /home/junghyun/topst/cr5-bsp/sources/build/tcc805x/gcc/tcc805x-freertos-debug/obj/tasks.o
pvTaskIncrementMutexHeldCount                     /home/junghyun/topst/cr5-bsp/sources/build/tcc805x/gcc/tcc805x-freertos-debug/obj/tasks.o
                                                  /home/junghyun/topst/cr5-bsp/sources/build/tcc805x/gcc/tcc805x-freertos-debug/obj/queue.o
pvTimerGetTimerID                                 /home/junghyun/topst/cr5-bsp/sources/build/tcc805x/gcc/tcc805x-freertos-debug/obj/timers.o
pxCurrentTCB                                      /home/junghyun/topst/cr5-bsp/sources/build/tcc805x/gcc/tcc805x-freertos-debug/obj/tasks.o
                                                  /home/junghyun/topst/cr5-bsp/sources/build/tcc805x/gcc/tcc805x-freertos-debug/obj/portASM.o
pxPortInitialiseStack                             /home/junghyun/topst/cr5-bsp/sources/build/tcc805x/gcc/tcc805x-freertos-debug/obj/port.o
                                                  /home/junghyun/topst/cr5-bsp/sources/build/tcc805x/gcc/tcc805x-freertos-debug/obj/tasks.o
reset                                             /home/junghyun/topst/cr5-bsp/sources/build/tcc805x/gcc/tcc805x-freertos-debug/obj/startup.o
                                                  /home/junghyun/topst/cr5-bsp/sources/build/tcc805x/gcc/tcc805x-freertos-debug/obj/vector.o
sMPUTable                                         /home/junghyun/topst/cr5-bsp/sources/build/tcc805x/gcc/tcc805x-freertos-debug/obj/mpu.o
setlocale                                         /home/junghyun/topst/buildtools/gcc-linaro-7.2.1-2017.11-x86_64_arm-eabi/arm-eabi/libc/usr/lib/libc.a(lib_a-locale.o)
spMboxDev                                         /home/junghyun/topst/cr5-bsp/sources/build/tcc805x/gcc/tcc805x-freertos-debug/obj/mbox_dev.o
                                                  /home/junghyun/topst/cr5-bsp/sources/build/tcc805x/gcc/tcc805x-freertos-debug/obj/bootctrl.o
strcasecmp                                        /home/junghyun/topst/buildtools/gcc-linaro-7.2.1-2017.11-x86_64_arm-eabi/arm-eabi/libc/usr/lib/libc.a(lib_a-strcasecmp.o)
                                                  /home/junghyun/topst/buildtools/gcc-linaro-7.2.1-2017.11-x86_64_arm-eabi/arm-eabi/libc/usr/lib/libc.a(lib_a-locale.o)
strcat                                            /home/junghyun/topst/buildtools/gcc-linaro-7.2.1-2017.11-x86_64_arm-eabi/arm-eabi/libc/usr/lib/libc.a(lib_a-strcat.o)
                                                  /home/junghyun/topst/buildtools/gcc-linaro-7.2.1-2017.11-x86_64_arm-eabi/arm-eabi/libc/usr/lib/libc.a(lib_a-locale.o)
strchr                                            /home/junghyun/topst/buildtools/gcc-linaro-7.2.1-2017.11-x86_64_arm-eabi/arm-eabi/libc/usr/lib/libc.a(lib_a-strchr.o)
                                                  /home/junghyun/topst/buildtools/gcc-linaro-7.2.1-2017.11-x86_64_arm-eabi/arm-eabi/libc/usr/lib/libc.a(lib_a-locale.o)
strcmp                                            /home/junghyun/topst/buildtools/gcc-linaro-7.2.1-2017.11-x86_64_arm-eabi/arm-eabi/libc/usr/lib/libc.a(lib_a-strcmp.o)
                                                  /home/junghyun/topst/buildtools/gcc-linaro-7.2.1-2017.11-x86_64_arm-eabi/arm-eabi/libc/usr/lib/libc.a(lib_a-locale.o)
strcpy                                            /home/junghyun/topst/buildtools/gcc-linaro-7.2.1-2017.11-x86_64_arm-eabi/arm-eabi/libc/usr/lib/libc.a(lib_a-strcpy.o)
                                                  /home/junghyun/topst/buildtools/gcc-linaro-7.2.1-2017.11-x86_64_arm-eabi/arm-eabi/libc/usr/lib/libc.a(lib_a-strcat.o)
                                                  /home/junghyun/topst/buildtools/gcc-linaro-7.2.1-2017.11-x86_64_arm-eabi/arm-eabi/libc/usr/lib/libc.a(lib_a-locale.o)
strlcpy                                           /home/junghyun/topst/buildtools/gcc-linaro-7.2.1-2017.11-x86_64_arm-eabi/arm-eabi/libc/usr/lib/libc.a(lib_a-strlcpy.o)
                                                  /home/junghyun/topst/buildtools/gcc-linaro-7.2.1-2017.11-x86_64_arm-eabi/arm-eabi/libc/usr/lib/libc.a(lib_a-locale.o)
strlen                                            /home/junghyun/topst/buildtools/gcc-linaro-7.2.1-2017.11-x86_64_arm-eabi/arm-eabi/libc/usr/lib/libc.a(lib_a-strlen-stub.o)
                                                  /home/junghyun/topst/buildtools/gcc-linaro-7.2.1-2017.11-x86_64_arm-eabi/arm-eabi/libc/usr/lib/libc.a(lib_a-locale.o)
                                                  /home/junghyun/topst/cr5-bsp/sources/build/tcc805x/gcc/tcc805x-freertos-debug/obj/tasks.o
strncasecmp                                       /home/junghyun/topst/buildtools/gcc-linaro-7.2.1-2017.11-x86_64_arm-eabi/arm-eabi/libc/usr/lib/libc.a(lib_a-strncasecmp.o)
                                                  /home/junghyun/topst/buildtools/gcc-linaro-7.2.1-2017.11-x86_64_arm-eabi/arm-eabi/libc/usr/lib/libc.a(lib_a-locale.o)
strncmp                                           /home/junghyun/topst/buildtools/gcc-linaro-7.2.1-2017.11-x86_64_arm-eabi/arm-eabi/libc/usr/lib/libc.a(lib_a-strncmp.o)
                                                  /home/junghyun/topst/buildtools/gcc-linaro-7.2.1-2017.11-x86_64_arm-eabi/arm-eabi/libc/usr/lib/libc.a(lib_a-getenv_r.o)
                                                  /home/junghyun/topst/buildtools/gcc-linaro-7.2.1-2017.11-x86_64_arm-eabi/arm-eabi/libc/usr/lib/libc.a(lib_a-locale.o)
                                                  /home/junghyun/topst/cr5-bsp/sources/build/tcc805x/gcc/tcc805x-freertos-debug/obj/sal_freertos_impl.o
strncpy                                           /home/junghyun/topst/buildtools/gcc-linaro-7.2.1-2017.11-x86_64_arm-eabi/arm-eabi/libc/usr/lib/libc.a(lib_a-strncpy.o)
                                                  /home/junghyun/topst/buildtools/gcc-linaro-7.2.1-2017.11-x86_64_arm-eabi/arm-eabi/libc/usr/lib/libc.a(lib_a-locale.o)
                                                  /home/junghyun/topst/cr5-bsp/sources/build/tcc805x/gcc/tcc805x-freertos-debug/obj/sal_freertos_impl.o
strnlen                                           /home/junghyun/topst/buildtools/gcc-linaro-7.2.1-2017.11-x86_64_arm-eabi/arm-eabi/libc/usr/lib/libc.a(lib_a-strnlen.o)
                                                  /home/junghyun/topst/cr5-bsp/sources/build/tcc805x/gcc/tcc805x-freertos-debug/obj/sal_freertos_impl.o
strtol                                            /home/junghyun/topst/buildtools/gcc-linaro-7.2.1-2017.11-x86_64_arm-eabi/arm-eabi/libc/usr/lib/libc.a(lib_a-strtol.o)
                                                  /home/junghyun/topst/buildtools/gcc-linaro-7.2.1-2017.11-x86_64_arm-eabi/arm-eabi/libc/usr/lib/libc.a(lib_a-locale.o)
                                                  /home/junghyun/topst/buildtools/gcc-linaro-7.2.1-2017.11-x86_64_arm-eabi/arm-eabi/libc/usr/lib/libc.a(lib_a-atol.o)
                                                  /home/junghyun/topst/buildtools/gcc-linaro-7.2.1-2017.11-x86_64_arm-eabi/arm-eabi/libc/usr/lib/libc.a(lib_a-atoi.o)
                                                  /home/junghyun/topst/cr5-bsp/sources/build/tcc805x/gcc/tcc805x-freertos-debug/obj/console.o
strtol_l                                          /home/junghyun/topst/buildtools/gcc-linaro-7.2.1-2017.11-x86_64_arm-eabi/arm-eabi/libc/usr/lib/libc.a(lib_a-strtol.o)
strtoul                                           /home/junghyun/topst/buildtools/gcc-linaro-7.2.1-2017.11-x86_64_arm-eabi/arm-eabi/libc/usr/lib/libc.a(lib_a-strtoul.o)
                                                  /home/junghyun/topst/cr5-bsp/sources/build/tcc805x/gcc/tcc805x-freertos-debug/obj/console.o
strtoul_l                                         /home/junghyun/topst/buildtools/gcc-linaro-7.2.1-2017.11-x86_64_arm-eabi/arm-eabi/libc/usr/lib/libc.a(lib_a-strtoul.o)
ucHeap                                            /home/junghyun/topst/cr5-bsp/sources/build/tcc805x/gcc/tcc805x-freertos-debug/obj/port.o
ulCriticalNesting                                 /home/junghyun/topst/cr5-bsp/sources/build/tcc805x/gcc/tcc805x-freertos-debug/obj/port.o
                                                  /home/junghyun/topst/cr5-bsp/sources/build/tcc805x/gcc/tcc805x-freertos-debug/obj/portASM.o
ulICCEOIR                                         /home/junghyun/topst/cr5-bsp/sources/build/tcc805x/gcc/tcc805x-freertos-debug/obj/port.o
                                                  /home/junghyun/topst/cr5-bsp/sources/build/tcc805x/gcc/tcc805x-freertos-debug/obj/portASM.o
ulICCIAR                                          /home/junghyun/topst/cr5-bsp/sources/build/tcc805x/gcc/tcc805x-freertos-debug/obj/port.o
                                                  /home/junghyun/topst/cr5-bsp/sources/build/tcc805x/gcc/tcc805x-freertos-debug/obj/portASM.o
ulICCPMR                                          /home/junghyun/topst/cr5-bsp/sources/build/tcc805x/gcc/tcc805x-freertos-debug/obj/port.o
                                                  /home/junghyun/topst/cr5-bsp/sources/build/tcc805x/gcc/tcc805x-freertos-debug/obj/portASM.o
ulMaxAPIPriorityMask                              /home/junghyun/topst/cr5-bsp/sources/build/tcc805x/gcc/tcc805x-freertos-debug/obj/port.o
                                                  /home/junghyun/topst/cr5-bsp/sources/build/tcc805x/gcc/tcc805x-freertos-debug/obj/portASM.o
ulPortInterruptNesting                            /home/junghyun/topst/cr5-bsp/sources/build/tcc805x/gcc/tcc805x-freertos-debug/obj/port.o
                                                  /home/junghyun/topst/cr5-bsp/sources/build/tcc805x/gcc/tcc805x-freertos-debug/obj/portASM.o
ulPortSetInterruptMask                            /home/junghyun/topst/cr5-bsp/sources/build/tcc805x/gcc/tcc805x-freertos-debug/obj/port.o
                                                  /home/junghyun/topst/cr5-bsp/sources/build/tcc805x/gcc/tcc805x-freertos-debug/obj/stream_buffer.o
                                                  /home/junghyun/topst/cr5-bsp/sources/build/tcc805x/gcc/tcc805x-freertos-debug/obj/event_groups.o
                                                  /home/junghyun/topst/cr5-bsp/sources/build/tcc805x/gcc/tcc805x-freertos-debug/obj/queue.o
                                                  /home/junghyun/topst/cr5-bsp/sources/build/tcc805x/gcc/tcc805x-freertos-debug/obj/tasks.o
ulPortTaskHasFPUContext                           /home/junghyun/topst/cr5-bsp/sources/build/tcc805x/gcc/tcc805x-freertos-debug/obj/port.o
                                                  /home/junghyun/topst/cr5-bsp/sources/build/tcc805x/gcc/tcc805x-freertos-debug/obj/portASM.o
ulPortYieldRequired                               /home/junghyun/topst/cr5-bsp/sources/build/tcc805x/gcc/tcc805x-freertos-debug/obj/port.o
                                                  /home/junghyun/topst/cr5-bsp/sources/build/tcc805x/gcc/tcc805x-freertos-debug/obj/portASM.o
                                                  /home/junghyun/topst/cr5-bsp/sources/build/tcc805x/gcc/tcc805x-freertos-debug/obj/sal_freertos_impl.o
ulTaskNotifyTake                                  /home/junghyun/topst/cr5-bsp/sources/build/tcc805x/gcc/tcc805x-freertos-debug/obj/tasks.o
ulTaskNotifyValueClear                            /home/junghyun/topst/cr5-bsp/sources/build/tcc805x/gcc/tcc805x-freertos-debug/obj/tasks.o
uxListRemove                                      /home/junghyun/topst/cr5-bsp/sources/build/tcc805x/gcc/tcc805x-freertos-debug/obj/list.o
                                                  /home/junghyun/topst/cr5-bsp/sources/build/tcc805x/gcc/tcc805x-freertos-debug/obj/timers.o
                                                  /home/junghyun/topst/cr5-bsp/sources/build/tcc805x/gcc/tcc805x-freertos-debug/obj/tasks.o
uxQueueMessagesWaiting                            /home/junghyun/topst/cr5-bsp/sources/build/tcc805x/gcc/tcc805x-freertos-debug/obj/queue.o
uxQueueMessagesWaitingFromISR                     /home/junghyun/topst/cr5-bsp/sources/build/tcc805x/gcc/tcc805x-freertos-debug/obj/queue.o
uxQueueSpacesAvailable                            /home/junghyun/topst/cr5-bsp/sources/build/tcc805x/gcc/tcc805x-freertos-debug/obj/queue.o
uxTaskGetNumberOfTasks                            /home/junghyun/topst/cr5-bsp/sources/build/tcc805x/gcc/tcc805x-freertos-debug/obj/tasks.o
uxTaskPriorityGet                                 /home/junghyun/topst/cr5-bsp/sources/build/tcc805x/gcc/tcc805x-freertos-debug/obj/tasks.o
uxTaskPriorityGetFromISR                          /home/junghyun/topst/cr5-bsp/sources/build/tcc805x/gcc/tcc805x-freertos-debug/obj/tasks.o
uxTaskResetEventItemValue                         /home/junghyun/topst/cr5-bsp/sources/build/tcc805x/gcc/tcc805x-freertos-debug/obj/tasks.o
                                                  /home/junghyun/topst/cr5-bsp/sources/build/tcc805x/gcc/tcc805x-freertos-debug/obj/event_groups.o
uxTimerGetReloadMode                              /home/junghyun/topst/cr5-bsp/sources/build/tcc805x/gcc/tcc805x-freertos-debug/obj/timers.o
vApplicationFPUSafeIRQHandler                     /home/junghyun/topst/cr5-bsp/sources/build/tcc805x/gcc/tcc805x-freertos-debug/obj/port.o
                                                  /home/junghyun/topst/cr5-bsp/sources/build/tcc805x/gcc/tcc805x-freertos-debug/obj/portASM.o
vApplicationGetIdleTaskMemory                     /home/junghyun/topst/cr5-bsp/sources/build/tcc805x/gcc/tcc805x-freertos-debug/obj/port.o
                                                  /home/junghyun/topst/cr5-bsp/sources/build/tcc805x/gcc/tcc805x-freertos-debug/obj/tasks.o
vApplicationGetTimerTaskMemory                    /home/junghyun/topst/cr5-bsp/sources/build/tcc805x/gcc/tcc805x-freertos-debug/obj/port.o
                                                  /home/junghyun/topst/cr5-bsp/sources/build/tcc805x/gcc/tcc805x-freertos-debug/obj/timers.o
vApplicationIRQHandler                            /home/junghyun/topst/cr5-bsp/sources/build/tcc805x/gcc/tcc805x-freertos-debug/obj/portASM.o
vApplicationStackOverflowHook                     /home/junghyun/topst/cr5-bsp/sources/build/tcc805x/gcc/tcc805x-freertos-debug/obj/port.o
                                                  /home/junghyun/topst/cr5-bsp/sources/build/tcc805x/gcc/tcc805x-freertos-debug/obj/tasks.o
vClearTickInterrupt                               /home/junghyun/topst/cr5-bsp/sources/build/tcc805x/gcc/tcc805x-freertos-debug/obj/port.o
vConfigureTickInterrupt                           /home/junghyun/topst/cr5-bsp/sources/build/tcc805x/gcc/tcc805x-freertos-debug/obj/port.o
vEventGroupClearBitsCallback                      /home/junghyun/topst/cr5-bsp/sources/build/tcc805x/gcc/tcc805x-freertos-debug/obj/event_groups.o
                                                  /home/junghyun/topst/cr5-bsp/sources/build/tcc805x/gcc/tcc805x-freertos-debug/obj/sal_freertos_impl.o
vEventGroupDelete                                 /home/junghyun/topst/cr5-bsp/sources/build/tcc805x/gcc/tcc805x-freertos-debug/obj/event_groups.o
vEventGroupSetBitsCallback                        /home/junghyun/topst/cr5-bsp/sources/build/tcc805x/gcc/tcc805x-freertos-debug/obj/event_groups.o
                                                  /home/junghyun/topst/cr5-bsp/sources/build/tcc805x/gcc/tcc805x-freertos-debug/obj/sal_freertos_impl.o
vInitialiseTimerForRunTimeStats                   /home/junghyun/topst/cr5-bsp/sources/build/tcc805x/gcc/tcc805x-freertos-debug/obj/port.o
                                                  /home/junghyun/topst/cr5-bsp/sources/build/tcc805x/gcc/tcc805x-freertos-debug/obj/tasks.o
vListInitialise                                   /home/junghyun/topst/cr5-bsp/sources/build/tcc805x/gcc/tcc805x-freertos-debug/obj/list.o
                                                  /home/junghyun/topst/cr5-bsp/sources/build/tcc805x/gcc/tcc805x-freertos-debug/obj/timers.o
                                                  /home/junghyun/topst/cr5-bsp/sources/build/tcc805x/gcc/tcc805x-freertos-debug/obj/event_groups.o
                                                  /home/junghyun/topst/cr5-bsp/sources/build/tcc805x/gcc/tcc805x-freertos-debug/obj/queue.o
                                                  /home/junghyun/topst/cr5-bsp/sources/build/tcc805x/gcc/tcc805x-freertos-debug/obj/tasks.o
vListInitialiseItem                               /home/junghyun/topst/cr5-bsp/sources/build/tcc805x/gcc/tcc805x-freertos-debug/obj/list.o
                                                  /home/junghyun/topst/cr5-bsp/sources/build/tcc805x/gcc/tcc805x-freertos-debug/obj/timers.o
                                                  /home/junghyun/topst/cr5-bsp/sources/build/tcc805x/gcc/tcc805x-freertos-debug/obj/tasks.o
vListInsert                                       /home/junghyun/topst/cr5-bsp/sources/build/tcc805x/gcc/tcc805x-freertos-debug/obj/list.o
                                                  /home/junghyun/topst/cr5-bsp/sources/build/tcc805x/gcc/tcc805x-freertos-debug/obj/timers.o
                                                  /home/junghyun/topst/cr5-bsp/sources/build/tcc805x/gcc/tcc805x-freertos-debug/obj/tasks.o
vListInsertEnd                                    /home/junghyun/topst/cr5-bsp/sources/build/tcc805x/gcc/tcc805x-freertos-debug/obj/list.o
                                                  /home/junghyun/topst/cr5-bsp/sources/build/tcc805x/gcc/tcc805x-freertos-debug/obj/tasks.o
vPortClearInterruptMask                           /home/junghyun/topst/cr5-bsp/sources/build/tcc805x/gcc/tcc805x-freertos-debug/obj/port.o
                                                  /home/junghyun/topst/cr5-bsp/sources/build/tcc805x/gcc/tcc805x-freertos-debug/obj/stream_buffer.o
                                                  /home/junghyun/topst/cr5-bsp/sources/build/tcc805x/gcc/tcc805x-freertos-debug/obj/event_groups.o
                                                  /home/junghyun/topst/cr5-bsp/sources/build/tcc805x/gcc/tcc805x-freertos-debug/obj/queue.o
                                                  /home/junghyun/topst/cr5-bsp/sources/build/tcc805x/gcc/tcc805x-freertos-debug/obj/tasks.o
vPortDefineHeapRegions                            /home/junghyun/topst/cr5-bsp/sources/build/tcc805x/gcc/tcc805x-freertos-debug/obj/heap_5.o
                                                  /home/junghyun/topst/cr5-bsp/sources/build/tcc805x/gcc/tcc805x-freertos-debug/obj/port.o
vPortEndScheduler                                 /home/junghyun/topst/cr5-bsp/sources/build/tcc805x/gcc/tcc805x-freertos-debug/obj/port.o
                                                  /home/junghyun/topst/cr5-bsp/sources/build/tcc805x/gcc/tcc805x-freertos-debug/obj/tasks.o
vPortEnterCritical                                /home/junghyun/topst/cr5-bsp/sources/build/tcc805x/gcc/tcc805x-freertos-debug/obj/port.o
                                                  /home/junghyun/topst/cr5-bsp/sources/build/tcc805x/gcc/tcc805x-freertos-debug/obj/heap_5.o
                                                  /home/junghyun/topst/cr5-bsp/sources/build/tcc805x/gcc/tcc805x-freertos-debug/obj/stream_buffer.o
                                                  /home/junghyun/topst/cr5-bsp/sources/build/tcc805x/gcc/tcc805x-freertos-debug/obj/timers.o
                                                  /home/junghyun/topst/cr5-bsp/sources/build/tcc805x/gcc/tcc805x-freertos-debug/obj/event_groups.o
                                                  /home/junghyun/topst/cr5-bsp/sources/build/tcc805x/gcc/tcc805x-freertos-debug/obj/queue.o
                                                  /home/junghyun/topst/cr5-bsp/sources/build/tcc805x/gcc/tcc805x-freertos-debug/obj/tasks.o
vPortExitCritical                                 /home/junghyun/topst/cr5-bsp/sources/build/tcc805x/gcc/tcc805x-freertos-debug/obj/port.o
                                                  /home/junghyun/topst/cr5-bsp/sources/build/tcc805x/gcc/tcc805x-freertos-debug/obj/heap_5.o
                                                  /home/junghyun/topst/cr5-bsp/sources/build/tcc805x/gcc/tcc805x-freertos-debug/obj/stream_buffer.o
                                                  /home/junghyun/topst/cr5-bsp/sources/build/tcc805x/gcc/tcc805x-freertos-debug/obj/timers.o
                                                  /home/junghyun/topst/cr5-bsp/sources/build/tcc805x/gcc/tcc805x-freertos-debug/obj/event_groups.o
                                                  /home/junghyun/topst/cr5-bsp/sources/build/tcc805x/gcc/tcc805x-freertos-debug/obj/queue.o
                                                  /home/junghyun/topst/cr5-bsp/sources/build/tcc805x/gcc/tcc805x-freertos-debug/obj/tasks.o
vPortFree                                         /home/junghyun/topst/cr5-bsp/sources/build/tcc805x/gcc/tcc805x-freertos-debug/obj/heap_5.o
                                                  /home/junghyun/topst/cr5-bsp/sources/build/tcc805x/gcc/tcc805x-freertos-debug/obj/stream_buffer.o
                                                  /home/junghyun/topst/cr5-bsp/sources/build/tcc805x/gcc/tcc805x-freertos-debug/obj/timers.o
                                                  /home/junghyun/topst/cr5-bsp/sources/build/tcc805x/gcc/tcc805x-freertos-debug/obj/event_groups.o
                                                  /home/junghyun/topst/cr5-bsp/sources/build/tcc805x/gcc/tcc805x-freertos-debug/obj/queue.o
                                                  /home/junghyun/topst/cr5-bsp/sources/build/tcc805x/gcc/tcc805x-freertos-debug/obj/tasks.o
vPortGetHeapStats                                 /home/junghyun/topst/cr5-bsp/sources/build/tcc805x/gcc/tcc805x-freertos-debug/obj/heap_5.o
vPortRestoreTaskContext                           /home/junghyun/topst/cr5-bsp/sources/build/tcc805x/gcc/tcc805x-freertos-debug/obj/portASM.o
                                                  /home/junghyun/topst/cr5-bsp/sources/build/tcc805x/gcc/tcc805x-freertos-debug/obj/port.o
vPortTaskUsesFPU                                  /home/junghyun/topst/cr5-bsp/sources/build/tcc805x/gcc/tcc805x-freertos-debug/obj/port.o
vPortValidateInterruptPriority                    /home/junghyun/topst/cr5-bsp/sources/build/tcc805x/gcc/tcc805x-freertos-debug/obj/port.o
                                                  /home/junghyun/topst/cr5-bsp/sources/build/tcc805x/gcc/tcc805x-freertos-debug/obj/queue.o
                                                  /home/junghyun/topst/cr5-bsp/sources/build/tcc805x/gcc/tcc805x-freertos-debug/obj/tasks.o
vQueueAddToRegistry                               /home/junghyun/topst/cr5-bsp/sources/build/tcc805x/gcc/tcc805x-freertos-debug/obj/queue.o
                                                  /home/junghyun/topst/cr5-bsp/sources/build/tcc805x/gcc/tcc805x-freertos-debug/obj/timers.o
vQueueDelete                                      /home/junghyun/topst/cr5-bsp/sources/build/tcc805x/gcc/tcc805x-freertos-debug/obj/queue.o
vQueueUnregisterQueue                             /home/junghyun/topst/cr5-bsp/sources/build/tcc805x/gcc/tcc805x-freertos-debug/obj/queue.o
vQueueWaitForMessageRestricted                    /home/junghyun/topst/cr5-bsp/sources/build/tcc805x/gcc/tcc805x-freertos-debug/obj/queue.o
                                                  /home/junghyun/topst/cr5-bsp/sources/build/tcc805x/gcc/tcc805x-freertos-debug/obj/timers.o
vStreamBufferDelete                               /home/junghyun/topst/cr5-bsp/sources/build/tcc805x/gcc/tcc805x-freertos-debug/obj/stream_buffer.o
vTaskDelay                                        /home/junghyun/topst/cr5-bsp/sources/build/tcc805x/gcc/tcc805x-freertos-debug/obj/tasks.o
                                                  /home/junghyun/topst/cr5-bsp/sources/build/tcc805x/gcc/tcc805x-freertos-debug/obj/sal_freertos_impl.o
vTaskDelayUntil                                   /home/junghyun/topst/cr5-bsp/sources/build/tcc805x/gcc/tcc805x-freertos-debug/obj/tasks.o
vTaskDelete                                       /home/junghyun/topst/cr5-bsp/sources/build/tcc805x/gcc/tcc805x-freertos-debug/obj/tasks.o
vTaskEndScheduler                                 /home/junghyun/topst/cr5-bsp/sources/build/tcc805x/gcc/tcc805x-freertos-debug/obj/tasks.o
vTaskInternalSetTimeOutState                      /home/junghyun/topst/cr5-bsp/sources/build/tcc805x/gcc/tcc805x-freertos-debug/obj/tasks.o
                                                  /home/junghyun/topst/cr5-bsp/sources/build/tcc805x/gcc/tcc805x-freertos-debug/obj/queue.o
vTaskMissedYield                                  /home/junghyun/topst/cr5-bsp/sources/build/tcc805x/gcc/tcc805x-freertos-debug/obj/tasks.o
                                                  /home/junghyun/topst/cr5-bsp/sources/build/tcc805x/gcc/tcc805x-freertos-debug/obj/queue.o
vTaskNotifyGiveFromISR                            /home/junghyun/topst/cr5-bsp/sources/build/tcc805x/gcc/tcc805x-freertos-debug/obj/tasks.o
vTaskPlaceOnEventList                             /home/junghyun/topst/cr5-bsp/sources/build/tcc805x/gcc/tcc805x-freertos-debug/obj/tasks.o
                                                  /home/junghyun/topst/cr5-bsp/sources/build/tcc805x/gcc/tcc805x-freertos-debug/obj/queue.o
vTaskPlaceOnEventListRestricted                   /home/junghyun/topst/cr5-bsp/sources/build/tcc805x/gcc/tcc805x-freertos-debug/obj/tasks.o
                                                  /home/junghyun/topst/cr5-bsp/sources/build/tcc805x/gcc/tcc805x-freertos-debug/obj/queue.o
vTaskPlaceOnUnorderedEventList                    /home/junghyun/topst/cr5-bsp/sources/build/tcc805x/gcc/tcc805x-freertos-debug/obj/tasks.o
                                                  /home/junghyun/topst/cr5-bsp/sources/build/tcc805x/gcc/tcc805x-freertos-debug/obj/event_groups.o
vTaskPriorityDisinheritAfterTimeout               /home/junghyun/topst/cr5-bsp/sources/build/tcc805x/gcc/tcc805x-freertos-debug/obj/tasks.o
                                                  /home/junghyun/topst/cr5-bsp/sources/build/tcc805x/gcc/tcc805x-freertos-debug/obj/queue.o
vTaskPrioritySet                                  /home/junghyun/topst/cr5-bsp/sources/build/tcc805x/gcc/tcc805x-freertos-debug/obj/tasks.o
vTaskRemoveFromUnorderedEventList                 /home/junghyun/topst/cr5-bsp/sources/build/tcc805x/gcc/tcc805x-freertos-debug/obj/tasks.o
                                                  /home/junghyun/topst/cr5-bsp/sources/build/tcc805x/gcc/tcc805x-freertos-debug/obj/event_groups.o
vTaskResume                                       /home/junghyun/topst/cr5-bsp/sources/build/tcc805x/gcc/tcc805x-freertos-debug/obj/tasks.o
vTaskSetTimeOutState                              /home/junghyun/topst/cr5-bsp/sources/build/tcc805x/gcc/tcc805x-freertos-debug/obj/tasks.o
                                                  /home/junghyun/topst/cr5-bsp/sources/build/tcc805x/gcc/tcc805x-freertos-debug/obj/stream_buffer.o
vTaskStartScheduler                               /home/junghyun/topst/cr5-bsp/sources/build/tcc805x/gcc/tcc805x-freertos-debug/obj/tasks.o
                                                  /home/junghyun/topst/cr5-bsp/sources/build/tcc805x/gcc/tcc805x-freertos-debug/obj/sal_freertos_impl.o
vTaskSuspend                                      /home/junghyun/topst/cr5-bsp/sources/build/tcc805x/gcc/tcc805x-freertos-debug/obj/tasks.o
vTaskSuspendAll                                   /home/junghyun/topst/cr5-bsp/sources/build/tcc805x/gcc/tcc805x-freertos-debug/obj/tasks.o
                                                  /home/junghyun/topst/cr5-bsp/sources/build/tcc805x/gcc/tcc805x-freertos-debug/obj/heap_5.o
                                                  /home/junghyun/topst/cr5-bsp/sources/build/tcc805x/gcc/tcc805x-freertos-debug/obj/stream_buffer.o
                                                  /home/junghyun/topst/cr5-bsp/sources/build/tcc805x/gcc/tcc805x-freertos-debug/obj/timers.o
                                                  /home/junghyun/topst/cr5-bsp/sources/build/tcc805x/gcc/tcc805x-freertos-debug/obj/event_groups.o
                                                  /home/junghyun/topst/cr5-bsp/sources/build/tcc805x/gcc/tcc805x-freertos-debug/obj/queue.o
vTaskSwitchContext                                /home/junghyun/topst/cr5-bsp/sources/build/tcc805x/gcc/tcc805x-freertos-debug/obj/tasks.o
                                                  /home/junghyun/topst/cr5-bsp/sources/build/tcc805x/gcc/tcc805x-freertos-debug/obj/portASM.o
vTimerSetReloadMode                               /home/junghyun/topst/cr5-bsp/sources/build/tcc805x/gcc/tcc805x-freertos-debug/obj/timers.o
vTimerSetTimerID                                  /home/junghyun/topst/cr5-bsp/sources/build/tcc805x/gcc/tcc805x-freertos-debug/obj/timers.o
vfp_init                                          /home/junghyun/topst/cr5-bsp/sources/build/tcc805x/gcc/tcc805x-freertos-debug/obj/vfp_init.o
                                                  /home/junghyun/topst/cr5-bsp/sources/build/tcc805x/gcc/tcc805x-freertos-debug/obj/startup.o
xEventGroupClearBits                              /home/junghyun/topst/cr5-bsp/sources/build/tcc805x/gcc/tcc805x-freertos-debug/obj/event_groups.o
                                                  /home/junghyun/topst/cr5-bsp/sources/build/tcc805x/gcc/tcc805x-freertos-debug/obj/sal_freertos_impl.o
xEventGroupCreate                                 /home/junghyun/topst/cr5-bsp/sources/build/tcc805x/gcc/tcc805x-freertos-debug/obj/event_groups.o
xEventGroupCreateStatic                           /home/junghyun/topst/cr5-bsp/sources/build/tcc805x/gcc/tcc805x-freertos-debug/obj/event_groups.o
                                                  /home/junghyun/topst/cr5-bsp/sources/build/tcc805x/gcc/tcc805x-freertos-debug/obj/sal_freertos_impl.o
xEventGroupGetBitsFromISR                         /home/junghyun/topst/cr5-bsp/sources/build/tcc805x/gcc/tcc805x-freertos-debug/obj/event_groups.o
xEventGroupSetBits                                /home/junghyun/topst/cr5-bsp/sources/build/tcc805x/gcc/tcc805x-freertos-debug/obj/event_groups.o
                                                  /home/junghyun/topst/cr5-bsp/sources/build/tcc805x/gcc/tcc805x-freertos-debug/obj/sal_freertos_impl.o
xEventGroupSync                                   /home/junghyun/topst/cr5-bsp/sources/build/tcc805x/gcc/tcc805x-freertos-debug/obj/event_groups.o
xEventGroupWaitBits                               /home/junghyun/topst/cr5-bsp/sources/build/tcc805x/gcc/tcc805x-freertos-debug/obj/event_groups.o
                                                  /home/junghyun/topst/cr5-bsp/sources/build/tcc805x/gcc/tcc805x-freertos-debug/obj/sal_freertos_impl.o
xPortGetFreeHeapSize                              /home/junghyun/topst/cr5-bsp/sources/build/tcc805x/gcc/tcc805x-freertos-debug/obj/heap_5.o
xPortGetInterruptNestingCount                     /home/junghyun/topst/cr5-bsp/sources/build/tcc805x/gcc/tcc805x-freertos-debug/obj/port.o
                                                  /home/junghyun/topst/cr5-bsp/sources/build/tcc805x/gcc/tcc805x-freertos-debug/obj/sal_freertos_impl.o
xPortGetMinimumEverFreeHeapSize                   /home/junghyun/topst/cr5-bsp/sources/build/tcc805x/gcc/tcc805x-freertos-debug/obj/heap_5.o
xPortStartScheduler                               /home/junghyun/topst/cr5-bsp/sources/build/tcc805x/gcc/tcc805x-freertos-debug/obj/port.o
                                                  /home/junghyun/topst/cr5-bsp/sources/build/tcc805x/gcc/tcc805x-freertos-debug/obj/tasks.o
xQueueAddToSet                                    /home/junghyun/topst/cr5-bsp/sources/build/tcc805x/gcc/tcc805x-freertos-debug/obj/queue.o
xQueueCreateCountingSemaphore                     /home/junghyun/topst/cr5-bsp/sources/build/tcc805x/gcc/tcc805x-freertos-debug/obj/queue.o
xQueueCreateCountingSemaphoreStatic               /home/junghyun/topst/cr5-bsp/sources/build/tcc805x/gcc/tcc805x-freertos-debug/obj/queue.o
xQueueCreateMutex                                 /home/junghyun/topst/cr5-bsp/sources/build/tcc805x/gcc/tcc805x-freertos-debug/obj/queue.o
xQueueCreateMutexStatic                           /home/junghyun/topst/cr5-bsp/sources/build/tcc805x/gcc/tcc805x-freertos-debug/obj/queue.o
xQueueCreateSet                                   /home/junghyun/topst/cr5-bsp/sources/build/tcc805x/gcc/tcc805x-freertos-debug/obj/queue.o
xQueueGenericCreate                               /home/junghyun/topst/cr5-bsp/sources/build/tcc805x/gcc/tcc805x-freertos-debug/obj/queue.o
xQueueGenericCreateStatic                         /home/junghyun/topst/cr5-bsp/sources/build/tcc805x/gcc/tcc805x-freertos-debug/obj/queue.o
                                                  /home/junghyun/topst/cr5-bsp/sources/build/tcc805x/gcc/tcc805x-freertos-debug/obj/sal_freertos_impl.o
                                                  /home/junghyun/topst/cr5-bsp/sources/build/tcc805x/gcc/tcc805x-freertos-debug/obj/timers.o
xQueueGenericReset                                /home/junghyun/topst/cr5-bsp/sources/build/tcc805x/gcc/tcc805x-freertos-debug/obj/queue.o
xQueueGenericSend                                 /home/junghyun/topst/cr5-bsp/sources/build/tcc805x/gcc/tcc805x-freertos-debug/obj/queue.o
                                                  /home/junghyun/topst/cr5-bsp/sources/build/tcc805x/gcc/tcc805x-freertos-debug/obj/sal_freertos_impl.o
                                                  /home/junghyun/topst/cr5-bsp/sources/build/tcc805x/gcc/tcc805x-freertos-debug/obj/timers.o
xQueueGenericSendFromISR                          /home/junghyun/topst/cr5-bsp/sources/build/tcc805x/gcc/tcc805x-freertos-debug/obj/queue.o
                                                  /home/junghyun/topst/cr5-bsp/sources/build/tcc805x/gcc/tcc805x-freertos-debug/obj/sal_freertos_impl.o
                                                  /home/junghyun/topst/cr5-bsp/sources/build/tcc805x/gcc/tcc805x-freertos-debug/obj/timers.o
xQueueGetMutexHolder                              /home/junghyun/topst/cr5-bsp/sources/build/tcc805x/gcc/tcc805x-freertos-debug/obj/queue.o
xQueueGetMutexHolderFromISR                       /home/junghyun/topst/cr5-bsp/sources/build/tcc805x/gcc/tcc805x-freertos-debug/obj/queue.o
xQueueGiveFromISR                                 /home/junghyun/topst/cr5-bsp/sources/build/tcc805x/gcc/tcc805x-freertos-debug/obj/queue.o
                                                  /home/junghyun/topst/cr5-bsp/sources/build/tcc805x/gcc/tcc805x-freertos-debug/obj/sal_freertos_impl.o
xQueueGiveMutexRecursive                          /home/junghyun/topst/cr5-bsp/sources/build/tcc805x/gcc/tcc805x-freertos-debug/obj/queue.o
xQueueIsQueueEmptyFromISR                         /home/junghyun/topst/cr5-bsp/sources/build/tcc805x/gcc/tcc805x-freertos-debug/obj/queue.o
xQueueIsQueueFullFromISR                          /home/junghyun/topst/cr5-bsp/sources/build/tcc805x/gcc/tcc805x-freertos-debug/obj/queue.o
xQueuePeek                                        /home/junghyun/topst/cr5-bsp/sources/build/tcc805x/gcc/tcc805x-freertos-debug/obj/queue.o
xQueuePeekFromISR                                 /home/junghyun/topst/cr5-bsp/sources/build/tcc805x/gcc/tcc805x-freertos-debug/obj/queue.o
xQueueReceive                                     /home/junghyun/topst/cr5-bsp/sources/build/tcc805x/gcc/tcc805x-freertos-debug/obj/queue.o
                                                  /home/junghyun/topst/cr5-bsp/sources/build/tcc805x/gcc/tcc805x-freertos-debug/obj/sal_freertos_impl.o
                                                  /home/junghyun/topst/cr5-bsp/sources/build/tcc805x/gcc/tcc805x-freertos-debug/obj/timers.o
xQueueReceiveFromISR                              /home/junghyun/topst/cr5-bsp/sources/build/tcc805x/gcc/tcc805x-freertos-debug/obj/queue.o
                                                  /home/junghyun/topst/cr5-bsp/sources/build/tcc805x/gcc/tcc805x-freertos-debug/obj/sal_freertos_impl.o
xQueueRegistry                                    /home/junghyun/topst/cr5-bsp/sources/build/tcc805x/gcc/tcc805x-freertos-debug/obj/queue.o
xQueueRemoveFromSet                               /home/junghyun/topst/cr5-bsp/sources/build/tcc805x/gcc/tcc805x-freertos-debug/obj/queue.o
xQueueSelectFromSet                               /home/junghyun/topst/cr5-bsp/sources/build/tcc805x/gcc/tcc805x-freertos-debug/obj/queue.o
xQueueSelectFromSetFromISR                        /home/junghyun/topst/cr5-bsp/sources/build/tcc805x/gcc/tcc805x-freertos-debug/obj/queue.o
xQueueSemaphoreTake                               /home/junghyun/topst/cr5-bsp/sources/build/tcc805x/gcc/tcc805x-freertos-debug/obj/queue.o
                                                  /home/junghyun/topst/cr5-bsp/sources/build/tcc805x/gcc/tcc805x-freertos-debug/obj/sal_freertos_impl.o
xQueueTakeMutexRecursive                          /home/junghyun/topst/cr5-bsp/sources/build/tcc805x/gcc/tcc805x-freertos-debug/obj/queue.o
xStreamBufferBytesAvailable                       /home/junghyun/topst/cr5-bsp/sources/build/tcc805x/gcc/tcc805x-freertos-debug/obj/stream_buffer.o
xStreamBufferGenericCreate                        /home/junghyun/topst/cr5-bsp/sources/build/tcc805x/gcc/tcc805x-freertos-debug/obj/stream_buffer.o
xStreamBufferGenericCreateStatic                  /home/junghyun/topst/cr5-bsp/sources/build/tcc805x/gcc/tcc805x-freertos-debug/obj/stream_buffer.o
xStreamBufferIsEmpty                              /home/junghyun/topst/cr5-bsp/sources/build/tcc805x/gcc/tcc805x-freertos-debug/obj/stream_buffer.o
xStreamBufferIsFull                               /home/junghyun/topst/cr5-bsp/sources/build/tcc805x/gcc/tcc805x-freertos-debug/obj/stream_buffer.o
xStreamBufferNextMessageLengthBytes               /home/junghyun/topst/cr5-bsp/sources/build/tcc805x/gcc/tcc805x-freertos-debug/obj/stream_buffer.o
xStreamBufferReceive                              /home/junghyun/topst/cr5-bsp/sources/build/tcc805x/gcc/tcc805x-freertos-debug/obj/stream_buffer.o
xStreamBufferReceiveCompletedFromISR              /home/junghyun/topst/cr5-bsp/sources/build/tcc805x/gcc/tcc805x-freertos-debug/obj/stream_buffer.o
xStreamBufferReceiveFromISR                       /home/junghyun/topst/cr5-bsp/sources/build/tcc805x/gcc/tcc805x-freertos-debug/obj/stream_buffer.o
xStreamBufferReset                                /home/junghyun/topst/cr5-bsp/sources/build/tcc805x/gcc/tcc805x-freertos-debug/obj/stream_buffer.o
xStreamBufferSend                                 /home/junghyun/topst/cr5-bsp/sources/build/tcc805x/gcc/tcc805x-freertos-debug/obj/stream_buffer.o
xStreamBufferSendCompletedFromISR                 /home/junghyun/topst/cr5-bsp/sources/build/tcc805x/gcc/tcc805x-freertos-debug/obj/stream_buffer.o
xStreamBufferSendFromISR                          /home/junghyun/topst/cr5-bsp/sources/build/tcc805x/gcc/tcc805x-freertos-debug/obj/stream_buffer.o
xStreamBufferSetTriggerLevel                      /home/junghyun/topst/cr5-bsp/sources/build/tcc805x/gcc/tcc805x-freertos-debug/obj/stream_buffer.o
xStreamBufferSpacesAvailable                      /home/junghyun/topst/cr5-bsp/sources/build/tcc805x/gcc/tcc805x-freertos-debug/obj/stream_buffer.o
xTaskAbortDelay                                   /home/junghyun/topst/cr5-bsp/sources/build/tcc805x/gcc/tcc805x-freertos-debug/obj/tasks.o
xTaskCatchUpTicks                                 /home/junghyun/topst/cr5-bsp/sources/build/tcc805x/gcc/tcc805x-freertos-debug/obj/tasks.o
xTaskCheckForTimeOut                              /home/junghyun/topst/cr5-bsp/sources/build/tcc805x/gcc/tcc805x-freertos-debug/obj/tasks.o
                                                  /home/junghyun/topst/cr5-bsp/sources/build/tcc805x/gcc/tcc805x-freertos-debug/obj/stream_buffer.o
                                                  /home/junghyun/topst/cr5-bsp/sources/build/tcc805x/gcc/tcc805x-freertos-debug/obj/queue.o
xTaskCreate                                       /home/junghyun/topst/cr5-bsp/sources/build/tcc805x/gcc/tcc805x-freertos-debug/obj/tasks.o
xTaskCreateStatic                                 /home/junghyun/topst/cr5-bsp/sources/build/tcc805x/gcc/tcc805x-freertos-debug/obj/tasks.o
                                                  /home/junghyun/topst/cr5-bsp/sources/build/tcc805x/gcc/tcc805x-freertos-debug/obj/sal_freertos_impl.o
                                                  /home/junghyun/topst/cr5-bsp/sources/build/tcc805x/gcc/tcc805x-freertos-debug/obj/timers.o
xTaskGenericNotify                                /home/junghyun/topst/cr5-bsp/sources/build/tcc805x/gcc/tcc805x-freertos-debug/obj/tasks.o
                                                  /home/junghyun/topst/cr5-bsp/sources/build/tcc805x/gcc/tcc805x-freertos-debug/obj/stream_buffer.o
xTaskGenericNotifyFromISR                         /home/junghyun/topst/cr5-bsp/sources/build/tcc805x/gcc/tcc805x-freertos-debug/obj/tasks.o
                                                  /home/junghyun/topst/cr5-bsp/sources/build/tcc805x/gcc/tcc805x-freertos-debug/obj/stream_buffer.o
xTaskGetCurrentTaskHandle                         /home/junghyun/topst/cr5-bsp/sources/build/tcc805x/gcc/tcc805x-freertos-debug/obj/tasks.o
                                                  /home/junghyun/topst/cr5-bsp/sources/build/tcc805x/gcc/tcc805x-freertos-debug/obj/stream_buffer.o
                                                  /home/junghyun/topst/cr5-bsp/sources/build/tcc805x/gcc/tcc805x-freertos-debug/obj/queue.o
xTaskGetHandle                                    /home/junghyun/topst/cr5-bsp/sources/build/tcc805x/gcc/tcc805x-freertos-debug/obj/tasks.o
xTaskGetSchedulerState                            /home/junghyun/topst/cr5-bsp/sources/build/tcc805x/gcc/tcc805x-freertos-debug/obj/tasks.o
                                                  /home/junghyun/topst/cr5-bsp/sources/build/tcc805x/gcc/tcc805x-freertos-debug/obj/timers.o
                                                  /home/junghyun/topst/cr5-bsp/sources/build/tcc805x/gcc/tcc805x-freertos-debug/obj/event_groups.o
                                                  /home/junghyun/topst/cr5-bsp/sources/build/tcc805x/gcc/tcc805x-freertos-debug/obj/queue.o
xTaskGetTickCount                                 /home/junghyun/topst/cr5-bsp/sources/build/tcc805x/gcc/tcc805x-freertos-debug/obj/tasks.o
                                                  /home/junghyun/topst/cr5-bsp/sources/build/tcc805x/gcc/tcc805x-freertos-debug/obj/sal_freertos_impl.o
                                                  /home/junghyun/topst/cr5-bsp/sources/build/tcc805x/gcc/tcc805x-freertos-debug/obj/timers.o
xTaskGetTickCountFromISR                          /home/junghyun/topst/cr5-bsp/sources/build/tcc805x/gcc/tcc805x-freertos-debug/obj/tasks.o
                                                  /home/junghyun/topst/cr5-bsp/sources/build/tcc805x/gcc/tcc805x-freertos-debug/obj/sal_freertos_impl.o
xTaskIncrementTick                                /home/junghyun/topst/cr5-bsp/sources/build/tcc805x/gcc/tcc805x-freertos-debug/obj/tasks.o
                                                  /home/junghyun/topst/cr5-bsp/sources/build/tcc805x/gcc/tcc805x-freertos-debug/obj/port.o
xTaskNotifyStateClear                             /home/junghyun/topst/cr5-bsp/sources/build/tcc805x/gcc/tcc805x-freertos-debug/obj/tasks.o
                                                  /home/junghyun/topst/cr5-bsp/sources/build/tcc805x/gcc/tcc805x-freertos-debug/obj/stream_buffer.o
xTaskNotifyWait                                   /home/junghyun/topst/cr5-bsp/sources/build/tcc805x/gcc/tcc805x-freertos-debug/obj/tasks.o
                                                  /home/junghyun/topst/cr5-bsp/sources/build/tcc805x/gcc/tcc805x-freertos-debug/obj/stream_buffer.o
xTaskPriorityDisinherit                           /home/junghyun/topst/cr5-bsp/sources/build/tcc805x/gcc/tcc805x-freertos-debug/obj/tasks.o
                                                  /home/junghyun/topst/cr5-bsp/sources/build/tcc805x/gcc/tcc805x-freertos-debug/obj/queue.o
xTaskPriorityInherit                              /home/junghyun/topst/cr5-bsp/sources/build/tcc805x/gcc/tcc805x-freertos-debug/obj/tasks.o
                                                  /home/junghyun/topst/cr5-bsp/sources/build/tcc805x/gcc/tcc805x-freertos-debug/obj/queue.o
xTaskRemoveFromEventList                          /home/junghyun/topst/cr5-bsp/sources/build/tcc805x/gcc/tcc805x-freertos-debug/obj/tasks.o
                                                  /home/junghyun/topst/cr5-bsp/sources/build/tcc805x/gcc/tcc805x-freertos-debug/obj/queue.o
xTaskResumeAll                                    /home/junghyun/topst/cr5-bsp/sources/build/tcc805x/gcc/tcc805x-freertos-debug/obj/tasks.o
                                                  /home/junghyun/topst/cr5-bsp/sources/build/tcc805x/gcc/tcc805x-freertos-debug/obj/heap_5.o
                                                  /home/junghyun/topst/cr5-bsp/sources/build/tcc805x/gcc/tcc805x-freertos-debug/obj/stream_buffer.o
                                                  /home/junghyun/topst/cr5-bsp/sources/build/tcc805x/gcc/tcc805x-freertos-debug/obj/timers.o
                                                  /home/junghyun/topst/cr5-bsp/sources/build/tcc805x/gcc/tcc805x-freertos-debug/obj/event_groups.o
                                                  /home/junghyun/topst/cr5-bsp/sources/build/tcc805x/gcc/tcc805x-freertos-debug/obj/queue.o
xTaskResumeFromISR                                /home/junghyun/topst/cr5-bsp/sources/build/tcc805x/gcc/tcc805x-freertos-debug/obj/tasks.o
xTimerCreate                                      /home/junghyun/topst/cr5-bsp/sources/build/tcc805x/gcc/tcc805x-freertos-debug/obj/timers.o
xTimerCreateStatic                                /home/junghyun/topst/cr5-bsp/sources/build/tcc805x/gcc/tcc805x-freertos-debug/obj/timers.o
xTimerCreateTimerTask                             /home/junghyun/topst/cr5-bsp/sources/build/tcc805x/gcc/tcc805x-freertos-debug/obj/timers.o
                                                  /home/junghyun/topst/cr5-bsp/sources/build/tcc805x/gcc/tcc805x-freertos-debug/obj/tasks.o
xTimerGenericCommand                              /home/junghyun/topst/cr5-bsp/sources/build/tcc805x/gcc/tcc805x-freertos-debug/obj/timers.o
xTimerGetExpiryTime                               /home/junghyun/topst/cr5-bsp/sources/build/tcc805x/gcc/tcc805x-freertos-debug/obj/timers.o
xTimerGetPeriod                                   /home/junghyun/topst/cr5-bsp/sources/build/tcc805x/gcc/tcc805x-freertos-debug/obj/timers.o
xTimerGetTimerDaemonTaskHandle                    /home/junghyun/topst/cr5-bsp/sources/build/tcc805x/gcc/tcc805x-freertos-debug/obj/timers.o
xTimerIsTimerActive                               /home/junghyun/topst/cr5-bsp/sources/build/tcc805x/gcc/tcc805x-freertos-debug/obj/timers.o
xTimerPendFunctionCall                            /home/junghyun/topst/cr5-bsp/sources/build/tcc805x/gcc/tcc805x-freertos-debug/obj/timers.o
xTimerPendFunctionCallFromISR                     /home/junghyun/topst/cr5-bsp/sources/build/tcc805x/gcc/tcc805x-freertos-debug/obj/timers.o
                                                  /home/junghyun/topst/cr5-bsp/sources/build/tcc805x/gcc/tcc805x-freertos-debug/obj/sal_freertos_impl.o
